Archive member included to satisfy reference by file (symbol)

/prog/riscv/lib/gcc/riscv64-unknown-elf/14.2.0/../../../../riscv64-unknown-elf/lib/rv32im_zicsr/ilp32/libc_nano.a(libc_a-abs.o)
                              /tmp/cc1eAt7H.o (abs)
/prog/riscv/lib/gcc/riscv64-unknown-elf/14.2.0/../../../../riscv64-unknown-elf/lib/rv32im_zicsr/ilp32/libc_nano.a(libc_a-atoi.o)
                              /tmp/ccUtj4vl.o (atoi)
/prog/riscv/lib/gcc/riscv64-unknown-elf/14.2.0/../../../../riscv64-unknown-elf/lib/rv32im_zicsr/ilp32/libc_nano.a(libc_a-calloc.o)
                              /tmp/cc7CcWHw.o (calloc)
/prog/riscv/lib/gcc/riscv64-unknown-elf/14.2.0/../../../../riscv64-unknown-elf/lib/rv32im_zicsr/ilp32/libc_nano.a(libc_a-callocr.o)
                              /prog/riscv/lib/gcc/riscv64-unknown-elf/14.2.0/../../../../riscv64-unknown-elf/lib/rv32im_zicsr/ilp32/libc_nano.a(libc_a-calloc.o) (_calloc_r)
/prog/riscv/lib/gcc/riscv64-unknown-elf/14.2.0/../../../../riscv64-unknown-elf/lib/rv32im_zicsr/ilp32/libc_nano.a(libc_a-exit.o)
                              /tmp/ccA3sui6.o (exit)
/prog/riscv/lib/gcc/riscv64-unknown-elf/14.2.0/../../../../riscv64-unknown-elf/lib/rv32im_zicsr/ilp32/libc_nano.a(libc_a-malloc.o)
                              /tmp/ccUIbcSk.o (malloc)
/prog/riscv/lib/gcc/riscv64-unknown-elf/14.2.0/../../../../riscv64-unknown-elf/lib/rv32im_zicsr/ilp32/libc_nano.a(libc_a-mallocr.o)
                              /prog/riscv/lib/gcc/riscv64-unknown-elf/14.2.0/../../../../riscv64-unknown-elf/lib/rv32im_zicsr/ilp32/libc_nano.a(libc_a-callocr.o) (_malloc_r)
/prog/riscv/lib/gcc/riscv64-unknown-elf/14.2.0/../../../../riscv64-unknown-elf/lib/rv32im_zicsr/ilp32/libc_nano.a(libc_a-mlock.o)
                              /prog/riscv/lib/gcc/riscv64-unknown-elf/14.2.0/../../../../riscv64-unknown-elf/lib/rv32im_zicsr/ilp32/libc_nano.a(libc_a-mallocr.o) (__malloc_lock)
/prog/riscv/lib/gcc/riscv64-unknown-elf/14.2.0/../../../../riscv64-unknown-elf/lib/rv32im_zicsr/ilp32/libc_nano.a(libc_a-realloc.o)
                              /tmp/cckYeBJT.o (realloc)
/prog/riscv/lib/gcc/riscv64-unknown-elf/14.2.0/../../../../riscv64-unknown-elf/lib/rv32im_zicsr/ilp32/libc_nano.a(libc_a-reallocr.o)
                              /prog/riscv/lib/gcc/riscv64-unknown-elf/14.2.0/../../../../riscv64-unknown-elf/lib/rv32im_zicsr/ilp32/libc_nano.a(libc_a-realloc.o) (_realloc_r)
/prog/riscv/lib/gcc/riscv64-unknown-elf/14.2.0/../../../../riscv64-unknown-elf/lib/rv32im_zicsr/ilp32/libc_nano.a(libc_a-strtol.o)
                              /prog/riscv/lib/gcc/riscv64-unknown-elf/14.2.0/../../../../riscv64-unknown-elf/lib/rv32im_zicsr/ilp32/libc_nano.a(libc_a-atoi.o) (_strtol_r)
/prog/riscv/lib/gcc/riscv64-unknown-elf/14.2.0/../../../../riscv64-unknown-elf/lib/rv32im_zicsr/ilp32/libc_nano.a(libc_a-ctype_.o)
                              /tmp/ccjHmZfx.o (_ctype_)
/prog/riscv/lib/gcc/riscv64-unknown-elf/14.2.0/../../../../riscv64-unknown-elf/lib/rv32im_zicsr/ilp32/libc_nano.a(libc_a-nano-vfprintf.o)
                              /tmp/ccA3sui6.o (vfprintf)
/prog/riscv/lib/gcc/riscv64-unknown-elf/14.2.0/../../../../riscv64-unknown-elf/lib/rv32im_zicsr/ilp32/libc_nano.a(libc_a-nano-vfprintf_i.o)
                              /prog/riscv/lib/gcc/riscv64-unknown-elf/14.2.0/../../../../riscv64-unknown-elf/lib/rv32im_zicsr/ilp32/libc_nano.a(libc_a-nano-vfprintf.o) (_printf_i)
/prog/riscv/lib/gcc/riscv64-unknown-elf/14.2.0/../../../../riscv64-unknown-elf/lib/rv32im_zicsr/ilp32/libc_nano.a(libc_a-fclose.o)
                              /tmp/ccUIbcSk.o (fclose)
/prog/riscv/lib/gcc/riscv64-unknown-elf/14.2.0/../../../../riscv64-unknown-elf/lib/rv32im_zicsr/ilp32/libc_nano.a(libc_a-fflush.o)
                              /prog/riscv/lib/gcc/riscv64-unknown-elf/14.2.0/../../../../riscv64-unknown-elf/lib/rv32im_zicsr/ilp32/libc_nano.a(libc_a-fclose.o) (__sflush_r)
/prog/riscv/lib/gcc/riscv64-unknown-elf/14.2.0/../../../../riscv64-unknown-elf/lib/rv32im_zicsr/ilp32/libc_nano.a(libc_a-findfp.o)
                              /prog/riscv/lib/gcc/riscv64-unknown-elf/14.2.0/../../../../riscv64-unknown-elf/lib/rv32im_zicsr/ilp32/libc_nano.a(libc_a-fflush.o) (__sglue)
/prog/riscv/lib/gcc/riscv64-unknown-elf/14.2.0/../../../../riscv64-unknown-elf/lib/rv32im_zicsr/ilp32/libc_nano.a(libc_a-fopen.o)
                              /tmp/ccUIbcSk.o (fopen)
/prog/riscv/lib/gcc/riscv64-unknown-elf/14.2.0/../../../../riscv64-unknown-elf/lib/rv32im_zicsr/ilp32/libc_nano.a(libc_a-fprintf.o)
                              /tmp/ccIUcI9t.o (fprintf)
/prog/riscv/lib/gcc/riscv64-unknown-elf/14.2.0/../../../../riscv64-unknown-elf/lib/rv32im_zicsr/ilp32/libc_nano.a(libc_a-fscanf.o)
                              /tmp/ccUIbcSk.o (fscanf)
/prog/riscv/lib/gcc/riscv64-unknown-elf/14.2.0/../../../../riscv64-unknown-elf/lib/rv32im_zicsr/ilp32/libc_nano.a(libc_a-fseek.o)
                              /prog/riscv/lib/gcc/riscv64-unknown-elf/14.2.0/../../../../riscv64-unknown-elf/lib/rv32im_zicsr/ilp32/libc_nano.a(libc_a-fopen.o) (_fseek_r)
/prog/riscv/lib/gcc/riscv64-unknown-elf/14.2.0/../../../../riscv64-unknown-elf/lib/rv32im_zicsr/ilp32/libc_nano.a(libc_a-fvwrite.o)
                              /prog/riscv/lib/gcc/riscv64-unknown-elf/14.2.0/../../../../riscv64-unknown-elf/lib/rv32im_zicsr/ilp32/libc_nano.a(libc_a-nano-vfprintf.o) (__sfvwrite_r)
/prog/riscv/lib/gcc/riscv64-unknown-elf/14.2.0/../../../../riscv64-unknown-elf/lib/rv32im_zicsr/ilp32/libc_nano.a(libc_a-fwalk.o)
                              /prog/riscv/lib/gcc/riscv64-unknown-elf/14.2.0/../../../../riscv64-unknown-elf/lib/rv32im_zicsr/ilp32/libc_nano.a(libc_a-fflush.o) (_fwalk_sglue)
/prog/riscv/lib/gcc/riscv64-unknown-elf/14.2.0/../../../../riscv64-unknown-elf/lib/rv32im_zicsr/ilp32/libc_nano.a(libc_a-printf.o)
                              /tmp/ccpgEVRG.o (printf)
/prog/riscv/lib/gcc/riscv64-unknown-elf/14.2.0/../../../../riscv64-unknown-elf/lib/rv32im_zicsr/ilp32/libc_nano.a(libc_a-setbuf.o)
                              /tmp/ccp2R3Ps.o (setbuf)
/prog/riscv/lib/gcc/riscv64-unknown-elf/14.2.0/../../../../riscv64-unknown-elf/lib/rv32im_zicsr/ilp32/libc_nano.a(libc_a-setvbuf.o)
                              /prog/riscv/lib/gcc/riscv64-unknown-elf/14.2.0/../../../../riscv64-unknown-elf/lib/rv32im_zicsr/ilp32/libc_nano.a(libc_a-setbuf.o) (setvbuf)
/prog/riscv/lib/gcc/riscv64-unknown-elf/14.2.0/../../../../riscv64-unknown-elf/lib/rv32im_zicsr/ilp32/libc_nano.a(libc_a-sprintf.o)
                              /tmp/ccIUcI9t.o (sprintf)
/prog/riscv/lib/gcc/riscv64-unknown-elf/14.2.0/../../../../riscv64-unknown-elf/lib/rv32im_zicsr/ilp32/libc_nano.a(libc_a-sscanf.o)
                              /tmp/ccUIbcSk.o (sscanf)
/prog/riscv/lib/gcc/riscv64-unknown-elf/14.2.0/../../../../riscv64-unknown-elf/lib/rv32im_zicsr/ilp32/libc_nano.a(libc_a-stdio.o)
                              /prog/riscv/lib/gcc/riscv64-unknown-elf/14.2.0/../../../../riscv64-unknown-elf/lib/rv32im_zicsr/ilp32/libc_nano.a(libc_a-findfp.o) (__sread)
/prog/riscv/lib/gcc/riscv64-unknown-elf/14.2.0/../../../../riscv64-unknown-elf/lib/rv32im_zicsr/ilp32/libc_nano.a(libc_a-wbuf.o)
                              /prog/riscv/lib/gcc/riscv64-unknown-elf/14.2.0/../../../../riscv64-unknown-elf/lib/rv32im_zicsr/ilp32/libc_nano.a(libc_a-nano-vfprintf.o) (__swbuf_r)
/prog/riscv/lib/gcc/riscv64-unknown-elf/14.2.0/../../../../riscv64-unknown-elf/lib/rv32im_zicsr/ilp32/libc_nano.a(libc_a-wsetup.o)
                              /prog/riscv/lib/gcc/riscv64-unknown-elf/14.2.0/../../../../riscv64-unknown-elf/lib/rv32im_zicsr/ilp32/libc_nano.a(libc_a-nano-vfprintf.o) (__swsetup_r)
/prog/riscv/lib/gcc/riscv64-unknown-elf/14.2.0/../../../../riscv64-unknown-elf/lib/rv32im_zicsr/ilp32/libc_nano.a(libc_a-fseeko.o)
                              /prog/riscv/lib/gcc/riscv64-unknown-elf/14.2.0/../../../../riscv64-unknown-elf/lib/rv32im_zicsr/ilp32/libc_nano.a(libc_a-fseek.o) (_fseeko_r)
/prog/riscv/lib/gcc/riscv64-unknown-elf/14.2.0/../../../../riscv64-unknown-elf/lib/rv32im_zicsr/ilp32/libc_nano.a(libc_a-memchr.o)
                              /prog/riscv/lib/gcc/riscv64-unknown-elf/14.2.0/../../../../riscv64-unknown-elf/lib/rv32im_zicsr/ilp32/libc_nano.a(libc_a-nano-vfprintf.o) (memchr)
/prog/riscv/lib/gcc/riscv64-unknown-elf/14.2.0/../../../../riscv64-unknown-elf/lib/rv32im_zicsr/ilp32/libc_nano.a(libc_a-strcasecmp.o)
                              /tmp/cc0sJo8D.o (strcasecmp)
/prog/riscv/lib/gcc/riscv64-unknown-elf/14.2.0/../../../../riscv64-unknown-elf/lib/rv32im_zicsr/ilp32/libc_nano.a(libc_a-strcat.o)
                              /tmp/ccUtj4vl.o (strcat)
/prog/riscv/lib/gcc/riscv64-unknown-elf/14.2.0/../../../../riscv64-unknown-elf/lib/rv32im_zicsr/ilp32/libc_nano.a(libc_a-strncasecmp.o)
                              /tmp/cccIYygE.o (strncasecmp)
/prog/riscv/lib/gcc/riscv64-unknown-elf/14.2.0/../../../../riscv64-unknown-elf/lib/rv32im_zicsr/ilp32/libc_nano.a(libc_a-strncmp.o)
                              /tmp/cckYeBJT.o (strncmp)
/prog/riscv/lib/gcc/riscv64-unknown-elf/14.2.0/../../../../riscv64-unknown-elf/lib/rv32im_zicsr/ilp32/libc_nano.a(libc_a-strncpy.o)
                              /tmp/ccfLgswY.o (strncpy)
/prog/riscv/lib/gcc/riscv64-unknown-elf/14.2.0/../../../../riscv64-unknown-elf/lib/rv32im_zicsr/ilp32/libc_nano.a(libc_a-closer.o)
                              /prog/riscv/lib/gcc/riscv64-unknown-elf/14.2.0/../../../../riscv64-unknown-elf/lib/rv32im_zicsr/ilp32/libc_nano.a(libc_a-stdio.o) (_close_r)
/prog/riscv/lib/gcc/riscv64-unknown-elf/14.2.0/../../../../riscv64-unknown-elf/lib/rv32im_zicsr/ilp32/libc_nano.a(libc_a-reent.o)
                              /prog/riscv/lib/gcc/riscv64-unknown-elf/14.2.0/../../../../riscv64-unknown-elf/lib/rv32im_zicsr/ilp32/libc_nano.a(libc_a-closer.o) (errno)
/prog/riscv/lib/gcc/riscv64-unknown-elf/14.2.0/../../../../riscv64-unknown-elf/lib/rv32im_zicsr/ilp32/libc_nano.a(libc_a-impure.o)
                              /tmp/ccIUcI9t.o (_impure_ptr)
/prog/riscv/lib/gcc/riscv64-unknown-elf/14.2.0/../../../../riscv64-unknown-elf/lib/rv32im_zicsr/ilp32/libc_nano.a(libc_a-lseekr.o)
                              /prog/riscv/lib/gcc/riscv64-unknown-elf/14.2.0/../../../../riscv64-unknown-elf/lib/rv32im_zicsr/ilp32/libc_nano.a(libc_a-stdio.o) (_lseek_r)
/prog/riscv/lib/gcc/riscv64-unknown-elf/14.2.0/../../../../riscv64-unknown-elf/lib/rv32im_zicsr/ilp32/libc_nano.a(libc_a-openr.o)
                              /prog/riscv/lib/gcc/riscv64-unknown-elf/14.2.0/../../../../riscv64-unknown-elf/lib/rv32im_zicsr/ilp32/libc_nano.a(libc_a-fopen.o) (_open_r)
/prog/riscv/lib/gcc/riscv64-unknown-elf/14.2.0/../../../../riscv64-unknown-elf/lib/rv32im_zicsr/ilp32/libc_nano.a(libc_a-readr.o)
                              /prog/riscv/lib/gcc/riscv64-unknown-elf/14.2.0/../../../../riscv64-unknown-elf/lib/rv32im_zicsr/ilp32/libc_nano.a(libc_a-stdio.o) (_read_r)
/prog/riscv/lib/gcc/riscv64-unknown-elf/14.2.0/../../../../riscv64-unknown-elf/lib/rv32im_zicsr/ilp32/libc_nano.a(libc_a-sbrkr.o)
                              /prog/riscv/lib/gcc/riscv64-unknown-elf/14.2.0/../../../../riscv64-unknown-elf/lib/rv32im_zicsr/ilp32/libc_nano.a(libc_a-mallocr.o) (_sbrk_r)
/prog/riscv/lib/gcc/riscv64-unknown-elf/14.2.0/../../../../riscv64-unknown-elf/lib/rv32im_zicsr/ilp32/libc_nano.a(libc_a-writer.o)
                              /prog/riscv/lib/gcc/riscv64-unknown-elf/14.2.0/../../../../riscv64-unknown-elf/lib/rv32im_zicsr/ilp32/libc_nano.a(libc_a-stdio.o) (_write_r)
/prog/riscv/lib/gcc/riscv64-unknown-elf/14.2.0/../../../../riscv64-unknown-elf/lib/rv32im_zicsr/ilp32/libc_nano.a(libc_a-errno.o)
                              /tmp/ccUIbcSk.o (__errno)
/prog/riscv/lib/gcc/riscv64-unknown-elf/14.2.0/../../../../riscv64-unknown-elf/lib/rv32im_zicsr/ilp32/libc_nano.a(libc_a-sysclose.o)
                              /tmp/ccfLgswY.o (close)
/prog/riscv/lib/gcc/riscv64-unknown-elf/14.2.0/../../../../riscv64-unknown-elf/lib/rv32im_zicsr/ilp32/libc_nano.a(libc_a-sysfstat.o)
                              /tmp/ccUIbcSk.o (fstat)
/prog/riscv/lib/gcc/riscv64-unknown-elf/14.2.0/../../../../riscv64-unknown-elf/lib/rv32im_zicsr/ilp32/libc_nano.a(libc_a-syslseek.o)
                              /tmp/cckYeBJT.o (lseek)
/prog/riscv/lib/gcc/riscv64-unknown-elf/14.2.0/../../../../riscv64-unknown-elf/lib/rv32im_zicsr/ilp32/libc_nano.a(libc_a-sysopen.o)
                              /tmp/ccfLgswY.o (open)
/prog/riscv/lib/gcc/riscv64-unknown-elf/14.2.0/../../../../riscv64-unknown-elf/lib/rv32im_zicsr/ilp32/libc_nano.a(libc_a-sysread.o)
                              /tmp/ccfLgswY.o (read)
/prog/riscv/lib/gcc/riscv64-unknown-elf/14.2.0/../../../../riscv64-unknown-elf/lib/rv32im_zicsr/ilp32/libc_nano.a(libc_a-sysstat.o)
                              /tmp/ccUIbcSk.o (stat)
/prog/riscv/lib/gcc/riscv64-unknown-elf/14.2.0/../../../../riscv64-unknown-elf/lib/rv32im_zicsr/ilp32/libc_nano.a(libc_a-syswrite.o)
                              /tmp/ccUIbcSk.o (write)
/prog/riscv/lib/gcc/riscv64-unknown-elf/14.2.0/../../../../riscv64-unknown-elf/lib/rv32im_zicsr/ilp32/libc_nano.a(libc_a-memmove.o)
                              /prog/riscv/lib/gcc/riscv64-unknown-elf/14.2.0/../../../../riscv64-unknown-elf/lib/rv32im_zicsr/ilp32/libc_nano.a(libc_a-fvwrite.o) (memmove)
/prog/riscv/lib/gcc/riscv64-unknown-elf/14.2.0/../../../../riscv64-unknown-elf/lib/rv32im_zicsr/ilp32/libc_nano.a(libc_a-strlen.o)
                              /tmp/ccjHmZfx.o (strlen)
/prog/riscv/lib/gcc/riscv64-unknown-elf/14.2.0/../../../../riscv64-unknown-elf/lib/rv32im_zicsr/ilp32/libc_nano.a(libc_a-strcpy.o)
                              /tmp/ccpgEVRG.o (strcpy)
/prog/riscv/lib/gcc/riscv64-unknown-elf/14.2.0/../../../../riscv64-unknown-elf/lib/rv32im_zicsr/ilp32/libc_nano.a(libc_a-strcmp.o)
                              /tmp/ccUtj4vl.o (strcmp)
/prog/riscv/lib/gcc/riscv64-unknown-elf/14.2.0/../../../../riscv64-unknown-elf/lib/rv32im_zicsr/ilp32/libc_nano.a(libc_a-freer.o)
                              /prog/riscv/lib/gcc/riscv64-unknown-elf/14.2.0/../../../../riscv64-unknown-elf/lib/rv32im_zicsr/ilp32/libc_nano.a(libc_a-malloc.o) (_free_r)
/prog/riscv/lib/gcc/riscv64-unknown-elf/14.2.0/../../../../riscv64-unknown-elf/lib/rv32im_zicsr/ilp32/libc_nano.a(libc_a-msizer.o)
                              /prog/riscv/lib/gcc/riscv64-unknown-elf/14.2.0/../../../../riscv64-unknown-elf/lib/rv32im_zicsr/ilp32/libc_nano.a(libc_a-reallocr.o) (_malloc_usable_size_r)
/prog/riscv/lib/gcc/riscv64-unknown-elf/14.2.0/../../../../riscv64-unknown-elf/lib/rv32im_zicsr/ilp32/libc_nano.a(libc_a-nano-svfprintf.o)
                              /prog/riscv/lib/gcc/riscv64-unknown-elf/14.2.0/../../../../riscv64-unknown-elf/lib/rv32im_zicsr/ilp32/libc_nano.a(libc_a-sprintf.o) (_svfprintf_r)
/prog/riscv/lib/gcc/riscv64-unknown-elf/14.2.0/../../../../riscv64-unknown-elf/lib/rv32im_zicsr/ilp32/libc_nano.a(libc_a-nano-svfscanf.o)
                              /prog/riscv/lib/gcc/riscv64-unknown-elf/14.2.0/../../../../riscv64-unknown-elf/lib/rv32im_zicsr/ilp32/libc_nano.a(libc_a-sscanf.o) (__ssvfscanf_r)
/prog/riscv/lib/gcc/riscv64-unknown-elf/14.2.0/../../../../riscv64-unknown-elf/lib/rv32im_zicsr/ilp32/libc_nano.a(libc_a-nano-vfscanf.o)
                              /prog/riscv/lib/gcc/riscv64-unknown-elf/14.2.0/../../../../riscv64-unknown-elf/lib/rv32im_zicsr/ilp32/libc_nano.a(libc_a-fscanf.o) (_vfscanf_r)
/prog/riscv/lib/gcc/riscv64-unknown-elf/14.2.0/../../../../riscv64-unknown-elf/lib/rv32im_zicsr/ilp32/libc_nano.a(libc_a-nano-vfscanf_i.o)
                              /prog/riscv/lib/gcc/riscv64-unknown-elf/14.2.0/../../../../riscv64-unknown-elf/lib/rv32im_zicsr/ilp32/libc_nano.a(libc_a-nano-svfscanf.o) (_scanf_chars)
/prog/riscv/lib/gcc/riscv64-unknown-elf/14.2.0/../../../../riscv64-unknown-elf/lib/rv32im_zicsr/ilp32/libc_nano.a(libc_a-flags.o)
                              /prog/riscv/lib/gcc/riscv64-unknown-elf/14.2.0/../../../../riscv64-unknown-elf/lib/rv32im_zicsr/ilp32/libc_nano.a(libc_a-fopen.o) (__sflags)
/prog/riscv/lib/gcc/riscv64-unknown-elf/14.2.0/../../../../riscv64-unknown-elf/lib/rv32im_zicsr/ilp32/libc_nano.a(libc_a-makebuf.o)
                              /prog/riscv/lib/gcc/riscv64-unknown-elf/14.2.0/../../../../riscv64-unknown-elf/lib/rv32im_zicsr/ilp32/libc_nano.a(libc_a-setvbuf.o) (__swhatbuf_r)
/prog/riscv/lib/gcc/riscv64-unknown-elf/14.2.0/../../../../riscv64-unknown-elf/lib/rv32im_zicsr/ilp32/libc_nano.a(libc_a-refill.o)
                              /prog/riscv/lib/gcc/riscv64-unknown-elf/14.2.0/../../../../riscv64-unknown-elf/lib/rv32im_zicsr/ilp32/libc_nano.a(libc_a-nano-vfscanf.o) (__srefill_r)
/prog/riscv/lib/gcc/riscv64-unknown-elf/14.2.0/../../../../riscv64-unknown-elf/lib/rv32im_zicsr/ilp32/libc_nano.a(libc_a-sccl.o)
                              /prog/riscv/lib/gcc/riscv64-unknown-elf/14.2.0/../../../../riscv64-unknown-elf/lib/rv32im_zicsr/ilp32/libc_nano.a(libc_a-nano-svfscanf.o) (__sccl)
/prog/riscv/lib/gcc/riscv64-unknown-elf/14.2.0/../../../../riscv64-unknown-elf/lib/rv32im_zicsr/ilp32/libc_nano.a(libc_a-ungetc.o)
                              /prog/riscv/lib/gcc/riscv64-unknown-elf/14.2.0/../../../../riscv64-unknown-elf/lib/rv32im_zicsr/ilp32/libc_nano.a(libc_a-nano-svfscanf.o) (__submore)
/prog/riscv/lib/gcc/riscv64-unknown-elf/14.2.0/../../../../riscv64-unknown-elf/lib/rv32im_zicsr/ilp32/libc_nano.a(libc_a-fstatr.o)
                              /prog/riscv/lib/gcc/riscv64-unknown-elf/14.2.0/../../../../riscv64-unknown-elf/lib/rv32im_zicsr/ilp32/libc_nano.a(libc_a-sysfstat.o) (_fstat_r)
/prog/riscv/lib/gcc/riscv64-unknown-elf/14.2.0/../../../../riscv64-unknown-elf/lib/rv32im_zicsr/ilp32/libc_nano.a(libc_a-isattyr.o)
                              /prog/riscv/lib/gcc/riscv64-unknown-elf/14.2.0/../../../../riscv64-unknown-elf/lib/rv32im_zicsr/ilp32/libc_nano.a(libc_a-makebuf.o) (_isatty_r)
/prog/riscv/lib/gcc/riscv64-unknown-elf/14.2.0/../../../../riscv64-unknown-elf/lib/rv32im_zicsr/ilp32/libc_nano.a(libc_a-statr.o)
                              /prog/riscv/lib/gcc/riscv64-unknown-elf/14.2.0/../../../../riscv64-unknown-elf/lib/rv32im_zicsr/ilp32/libc_nano.a(libc_a-sysstat.o) (_stat_r)
/prog/riscv/lib/gcc/riscv64-unknown-elf/14.2.0/../../../../riscv64-unknown-elf/lib/rv32im_zicsr/ilp32/libc_nano.a(libc_a-strtoul.o)
                              /prog/riscv/lib/gcc/riscv64-unknown-elf/14.2.0/../../../../riscv64-unknown-elf/lib/rv32im_zicsr/ilp32/libc_nano.a(libc_a-nano-vfscanf_i.o) (_strtoul_r)
/prog/riscv/lib/gcc/riscv64-unknown-elf/14.2.0/rv32im_zicsr/ilp32/libgcc.a(_divdi3.o)
                              /tmp/cc1eAt7H.o (__divdi3)
/prog/riscv/lib/gcc/riscv64-unknown-elf/14.2.0/rv32im_zicsr/ilp32/libgcc.a(_clz.o)
                              /prog/riscv/lib/gcc/riscv64-unknown-elf/14.2.0/rv32im_zicsr/ilp32/libgcc.a(_divdi3.o) (__clz_tab)
/prog/riscv/lib/gcc/riscv64-unknown-elf/14.2.0/../../../../riscv64-unknown-elf/lib/rv32im_zicsr/ilp32/libnosys.a(_exit.o)
                              /prog/riscv/lib/gcc/riscv64-unknown-elf/14.2.0/../../../../riscv64-unknown-elf/lib/rv32im_zicsr/ilp32/libc_nano.a(libc_a-exit.o) (_exit)

Discarded input sections

 .text          0x00000000        0x0 /tmp/ccIUcI9t.o
 .data          0x00000000        0x0 /tmp/ccIUcI9t.o
 .bss           0x00000000        0x0 /tmp/ccIUcI9t.o
 .text.AM_getIslope
                0x00000000       0xb0 /tmp/ccIUcI9t.o
 .text.AM_updateLightLev
                0x00000000       0x64 /tmp/ccIUcI9t.o
 .rodata.litelevels.4
                0x00000000       0x20 /tmp/ccIUcI9t.o
 .sbss.litelevelscnt.5
                0x00000000        0x4 /tmp/ccIUcI9t.o
 .sbss.nexttic.6
                0x00000000        0x4 /tmp/ccIUcI9t.o
 .data.triangle_guy
                0x00000000       0x30 /tmp/ccIUcI9t.o
 .text          0x00000000        0x0 /tmp/ccmkV7yr.o
 .data          0x00000000        0x0 /tmp/ccmkV7yr.o
 .bss           0x00000000        0x0 /tmp/ccmkV7yr.o
 .text          0x00000000        0x0 /tmp/ccpgEVRG.o
 .data          0x00000000        0x0 /tmp/ccpgEVRG.o
 .bss           0x00000000        0x0 /tmp/ccpgEVRG.o
 .text.NetbufferChecksum
                0x00000000        0x8 /tmp/ccpgEVRG.o
 .bss.frametics
                0x00000000       0x10 /tmp/ccpgEVRG.o
 .sbss.lastnettic
                0x00000000        0x4 /tmp/ccpgEVRG.o
 .text          0x00000000        0x0 /tmp/ccl4LMkR.o
 .data          0x00000000        0x0 /tmp/ccl4LMkR.o
 .bss           0x00000000        0x0 /tmp/ccl4LMkR.o
 .comment       0x00000000       0x10 /tmp/ccl4LMkR.o
 .note.GNU-stack
                0x00000000        0x0 /tmp/ccl4LMkR.o
 .riscv.attributes
                0x00000000       0x33 /tmp/ccl4LMkR.o
 .text          0x00000000        0x0 /tmp/cc4ktsDS.o
 .data          0x00000000        0x0 /tmp/cc4ktsDS.o
 .bss           0x00000000        0x0 /tmp/cc4ktsDS.o
 .text          0x00000000        0x0 /tmp/ccgU7jdx.o
 .data          0x00000000        0x0 /tmp/ccgU7jdx.o
 .bss           0x00000000        0x0 /tmp/ccgU7jdx.o
 .text          0x00000000        0x0 /tmp/ccjHmZfx.o
 .data          0x00000000        0x0 /tmp/ccjHmZfx.o
 .bss           0x00000000        0x0 /tmp/ccjHmZfx.o
 .sdata.t6text  0x00000000        0x4 /tmp/ccjHmZfx.o
 .sdata.t5text  0x00000000        0x4 /tmp/ccjHmZfx.o
 .sdata.t4text  0x00000000        0x4 /tmp/ccjHmZfx.o
 .sdata.t3text  0x00000000        0x4 /tmp/ccjHmZfx.o
 .sdata.t2text  0x00000000        0x4 /tmp/ccjHmZfx.o
 .sdata.t1text  0x00000000        0x4 /tmp/ccjHmZfx.o
 .sdata.p6text  0x00000000        0x4 /tmp/ccjHmZfx.o
 .sdata.p5text  0x00000000        0x4 /tmp/ccjHmZfx.o
 .sdata.p4text  0x00000000        0x4 /tmp/ccjHmZfx.o
 .sdata.p3text  0x00000000        0x4 /tmp/ccjHmZfx.o
 .sdata.p2text  0x00000000        0x4 /tmp/ccjHmZfx.o
 .sdata.p1text  0x00000000        0x4 /tmp/ccjHmZfx.o
 .text          0x00000000        0x0 /tmp/cccIdlRp.o
 .data          0x00000000        0x0 /tmp/cccIdlRp.o
 .bss           0x00000000        0x0 /tmp/cccIdlRp.o
 .text          0x00000000        0x0 /tmp/ccUtj4vl.o
 .data          0x00000000        0x0 /tmp/ccUtj4vl.o
 .bss           0x00000000        0x0 /tmp/ccUtj4vl.o
 .text.G_CmdChecksum
                0x00000000        0x8 /tmp/ccUtj4vl.o
 .text.G_InitPlayer
                0x00000000        0x8 /tmp/ccUtj4vl.o
 .rodata.G_RecordDemo.str1.4
                0x00000000       0x11 /tmp/ccUtj4vl.o
 .text.G_RecordDemo
                0x00000000       0xcc /tmp/ccUtj4vl.o
 .text.G_BeginRecording
                0x00000000      0x108 /tmp/ccUtj4vl.o
 .rodata.G_TimeDemo.str1.4
                0x00000000       0x10 /tmp/ccUtj4vl.o
 .text.G_TimeDemo
                0x00000000       0x78 /tmp/ccUtj4vl.o
 .sbss.noblit   0x00000000        0x4 /tmp/ccUtj4vl.o
 .text          0x00000000        0x0 /tmp/ccKCxv9t.o
 .data          0x00000000        0x0 /tmp/ccKCxv9t.o
 .bss           0x00000000        0x0 /tmp/ccKCxv9t.o
 .text.HUlib_init
                0x00000000        0x4 /tmp/ccKCxv9t.o
 .text.HUlib_clearTextLine
                0x00000000       0x14 /tmp/ccKCxv9t.o
 .text.HUlib_eraseLineFromIText
                0x00000000       0x3c /tmp/ccKCxv9t.o
 .text.HUlib_addPrefixToIText
                0x00000000       0x50 /tmp/ccKCxv9t.o
 .text          0x00000000        0x0 /tmp/ccEARxVL.o
 .data          0x00000000        0x0 /tmp/ccEARxVL.o
 .bss           0x00000000        0x0 /tmp/ccEARxVL.o
 .text.HU_Stop  0x00000000        0xc /tmp/ccEARxVL.o
 .rodata.english_shiftxform
                0x00000000       0x80 /tmp/ccEARxVL.o
 .data.mapnamest
                0x00000000       0x80 /tmp/ccEARxVL.o
 .data.mapnamesp
                0x00000000       0x80 /tmp/ccEARxVL.o
 .sbss.chat_char
                0x00000000        0x1 /tmp/ccEARxVL.o
 .text          0x00000000        0x0 /tmp/ccmjtV4p.o
 .data          0x00000000        0x0 /tmp/ccmjtV4p.o
 .bss           0x00000000        0x0 /tmp/ccmjtV4p.o
 .text          0x00000000        0x0 /tmp/cc0sJo8D.o
 .data          0x00000000        0x0 /tmp/cc0sJo8D.o
 .bss           0x00000000        0x0 /tmp/cc0sJo8D.o
 .text          0x00000000        0x0 /tmp/ccXiNted.o
 .data          0x00000000        0x0 /tmp/ccXiNted.o
 .bss           0x00000000        0x0 /tmp/ccXiNted.o
 .text          0x00000000        0x0 /tmp/ccKIE5CM.o
 .data          0x00000000        0x0 /tmp/ccKIE5CM.o
 .bss           0x00000000        0x0 /tmp/ccKIE5CM.o
 .text          0x00000000        0x0 /tmp/cc1eAt7H.o
 .data          0x00000000        0x0 /tmp/cc1eAt7H.o
 .bss           0x00000000        0x0 /tmp/cc1eAt7H.o
 .text.FixedDiv2
                0x00000000       0x38 /tmp/cc1eAt7H.o
 .text          0x00000000        0x0 /tmp/ccfLgswY.o
 .data          0x00000000        0x0 /tmp/ccfLgswY.o
 .bss           0x00000000        0x0 /tmp/ccfLgswY.o
 .rodata.M_DrawEmptyCell.str1.4
                0x00000000        0x8 /tmp/ccfLgswY.o
 .text.M_DrawEmptyCell
                0x00000000       0x64 /tmp/ccfLgswY.o
 .rodata.M_DrawSelCell.str1.4
                0x00000000        0x8 /tmp/ccfLgswY.o
 .text.M_DrawSelCell
                0x00000000       0x64 /tmp/ccfLgswY.o
 .text.M_StopMessage
                0x00000000       0x1c /tmp/ccfLgswY.o
 .text.M_ClearMenus
                0x00000000        0xc /tmp/ccfLgswY.o
 .sbss.load_e   0x00000000        0x4 /tmp/ccfLgswY.o
 .sbss.sound_e  0x00000000        0x4 /tmp/ccfLgswY.o
 .sbss.read_e2  0x00000000        0x4 /tmp/ccfLgswY.o
 .sbss.read_e   0x00000000        0x4 /tmp/ccfLgswY.o
 .sbss.options_e
                0x00000000        0x4 /tmp/ccfLgswY.o
 .sbss.newgame_e
                0x00000000        0x4 /tmp/ccfLgswY.o
 .sbss.episodes_e
                0x00000000        0x4 /tmp/ccfLgswY.o
 .sbss.main_e   0x00000000        0x4 /tmp/ccfLgswY.o
 .sbss.messy    0x00000000        0x4 /tmp/ccfLgswY.o
 .sbss.messx    0x00000000        0x4 /tmp/ccfLgswY.o
 .text          0x00000000        0x0 /tmp/ccUIbcSk.o
 .data          0x00000000        0x0 /tmp/ccUIbcSk.o
 .bss           0x00000000        0x0 /tmp/ccUIbcSk.o
 .text.M_DrawText
                0x00000000       0xf0 /tmp/ccUIbcSk.o
 .text          0x00000000        0x0 /tmp/ccvDkeA0.o
 .data          0x00000000        0x0 /tmp/ccvDkeA0.o
 .bss           0x00000000        0x0 /tmp/ccvDkeA0.o
 .text          0x00000000        0x0 /tmp/ccFIXAxG.o
 .data          0x00000000        0x0 /tmp/ccFIXAxG.o
 .bss           0x00000000        0x0 /tmp/ccFIXAxG.o
 .text.SwapSHORT
                0x00000000       0x18 /tmp/ccFIXAxG.o
 .text.SwapLONG
                0x00000000       0x34 /tmp/ccFIXAxG.o
 .comment       0x00000000       0x10 /tmp/ccFIXAxG.o
 .note.GNU-stack
                0x00000000        0x0 /tmp/ccFIXAxG.o
 .riscv.attributes
                0x00000000       0x33 /tmp/ccFIXAxG.o
 .text          0x00000000        0x0 /tmp/cclH31lB.o
 .data          0x00000000        0x0 /tmp/cclH31lB.o
 .bss           0x00000000        0x0 /tmp/cclH31lB.o
 .text          0x00000000        0x0 /tmp/cc3mgFQP.o
 .data          0x00000000        0x0 /tmp/cc3mgFQP.o
 .bss           0x00000000        0x0 /tmp/cc3mgFQP.o
 .text          0x00000000        0x0 /tmp/ccqpieuX.o
 .data          0x00000000        0x0 /tmp/ccqpieuX.o
 .bss           0x00000000        0x0 /tmp/ccqpieuX.o
 .text          0x00000000        0x0 /tmp/cczxoUUx.o
 .data          0x00000000        0x0 /tmp/cczxoUUx.o
 .bss           0x00000000        0x0 /tmp/cczxoUUx.o
 .text          0x00000000        0x0 /tmp/cc37mN0l.o
 .data          0x00000000        0x0 /tmp/cc37mN0l.o
 .bss           0x00000000        0x0 /tmp/cc37mN0l.o
 .text          0x00000000        0x0 /tmp/ccbT5xtP.o
 .data          0x00000000        0x0 /tmp/ccbT5xtP.o
 .bss           0x00000000        0x0 /tmp/ccbT5xtP.o
 .text          0x00000000        0x0 /tmp/cckymBR5.o
 .data          0x00000000        0x0 /tmp/cckymBR5.o
 .bss           0x00000000        0x0 /tmp/cckymBR5.o
 .text          0x00000000        0x0 /tmp/ccf8vVS2.o
 .data          0x00000000        0x0 /tmp/ccf8vVS2.o
 .bss           0x00000000        0x0 /tmp/ccf8vVS2.o
 .sbss.ptflags  0x00000000        0x4 /tmp/ccf8vVS2.o
 .text          0x00000000        0x0 /tmp/ccj2wwR0.o
 .data          0x00000000        0x0 /tmp/ccj2wwR0.o
 .bss           0x00000000        0x0 /tmp/ccj2wwR0.o
 .sbss.test     0x00000000        0x4 /tmp/ccj2wwR0.o
 .text          0x00000000        0x0 /tmp/ccvd2S5m.o
 .data          0x00000000        0x0 /tmp/ccvd2S5m.o
 .bss           0x00000000        0x0 /tmp/ccvd2S5m.o
 .text          0x00000000        0x0 /tmp/cc1JYthu.o
 .data          0x00000000        0x0 /tmp/cc1JYthu.o
 .bss           0x00000000        0x0 /tmp/cc1JYthu.o
 .text.P_CalcSwing
                0x00000000       0xac /tmp/cc1JYthu.o
 .sbss.swingy   0x00000000        0x4 /tmp/cc1JYthu.o
 .sbss.swingx   0x00000000        0x4 /tmp/cc1JYthu.o
 .text          0x00000000        0x0 /tmp/ccmdsAPV.o
 .data          0x00000000        0x0 /tmp/ccmdsAPV.o
 .bss           0x00000000        0x0 /tmp/ccmdsAPV.o
 .sbss.specials_e
                0x00000000        0x4 /tmp/ccmdsAPV.o
 .text          0x00000000        0x0 /tmp/cclbtQ5a.o
 .data          0x00000000        0x0 /tmp/cclbtQ5a.o
 .bss           0x00000000        0x0 /tmp/cclbtQ5a.o
 .text          0x00000000        0x0 /tmp/ccsc2Jgi.o
 .data          0x00000000        0x0 /tmp/ccsc2Jgi.o
 .bss           0x00000000        0x0 /tmp/ccsc2Jgi.o
 .text          0x00000000        0x0 /tmp/ccVvVkCG.o
 .data          0x00000000        0x0 /tmp/ccVvVkCG.o
 .bss           0x00000000        0x0 /tmp/ccVvVkCG.o
 .text          0x00000000        0x0 /tmp/ccPJzS57.o
 .data          0x00000000        0x0 /tmp/ccPJzS57.o
 .bss           0x00000000        0x0 /tmp/ccPJzS57.o
 .text          0x00000000        0x0 /tmp/cc8iKbln.o
 .data          0x00000000        0x0 /tmp/cc8iKbln.o
 .bss           0x00000000        0x0 /tmp/cc8iKbln.o
 .text          0x00000000        0x0 /tmp/ccdfhlmN.o
 .data          0x00000000        0x0 /tmp/ccdfhlmN.o
 .bss           0x00000000        0x0 /tmp/ccdfhlmN.o
 .text.P_AllocateThinker
                0x00000000        0x4 /tmp/ccdfhlmN.o
 .text          0x00000000        0x0 /tmp/cc3sh9yo.o
 .data          0x00000000        0x0 /tmp/cc3sh9yo.o
 .bss           0x00000000        0x0 /tmp/cc3sh9yo.o
 .text          0x00000000        0x0 /tmp/ccvMH7AX.o
 .data          0x00000000        0x0 /tmp/ccvMH7AX.o
 .bss           0x00000000        0x0 /tmp/ccvMH7AX.o
 .text          0x00000000        0x0 /tmp/cccIYygE.o
 .data          0x00000000        0x0 /tmp/cccIYygE.o
 .bss           0x00000000        0x0 /tmp/cccIYygE.o
 .sbss.numpatches
                0x00000000        0x4 /tmp/cccIYygE.o
 .sbss.lastpatch
                0x00000000        0x4 /tmp/cccIYygE.o
 .sbss.firstpatch
                0x00000000        0x4 /tmp/cccIYygE.o
 .text          0x00000000        0x0 /tmp/ccwKsAYB.o
 .data          0x00000000        0x0 /tmp/ccwKsAYB.o
 .bss           0x00000000        0x0 /tmp/ccwKsAYB.o
 .sbss.dscount  0x00000000        0x4 /tmp/ccwKsAYB.o
 .sbss.dccount  0x00000000        0x4 /tmp/ccwKsAYB.o
 .bss.translations
                0x00000000      0x300 /tmp/ccwKsAYB.o
 .sbss.viewimage
                0x00000000        0x4 /tmp/ccwKsAYB.o
 .text          0x00000000        0x0 /tmp/cc5i2vm6.o
 .data          0x00000000        0x0 /tmp/cc5i2vm6.o
 .bss           0x00000000        0x0 /tmp/cc5i2vm6.o
 .text.R_AddPointToBox
                0x00000000       0x34 /tmp/cc5i2vm6.o
 .text.R_InitPointToAngle
                0x00000000        0x4 /tmp/cc5i2vm6.o
 .text.R_InitTables
                0x00000000        0x4 /tmp/cc5i2vm6.o
 .sbss.loopcount
                0x00000000        0x4 /tmp/cc5i2vm6.o
 .sbss.linecount
                0x00000000        0x4 /tmp/cc5i2vm6.o
 .text          0x00000000        0x0 /tmp/ccf0NvUc.o
 .data          0x00000000        0x0 /tmp/ccf0NvUc.o
 .bss           0x00000000        0x0 /tmp/ccf0NvUc.o
 .bss.spanstop  0x00000000      0x320 /tmp/ccf0NvUc.o
 .sbss.ceilingfunc
                0x00000000        0x4 /tmp/ccf0NvUc.o
 .sbss.floorfunc
                0x00000000        0x4 /tmp/ccf0NvUc.o
 .text          0x00000000        0x0 /tmp/cc60vALi.o
 .data          0x00000000        0x0 /tmp/cc60vALi.o
 .bss           0x00000000        0x0 /tmp/cc60vALi.o
 .text          0x00000000        0x0 /tmp/ccof1MZ4.o
 .data          0x00000000        0x0 /tmp/ccof1MZ4.o
 .bss           0x00000000        0x0 /tmp/ccof1MZ4.o
 .text          0x00000000        0x0 /tmp/ccUvJ9IP.o
 .data          0x00000000        0x0 /tmp/ccUvJ9IP.o
 .bss           0x00000000        0x0 /tmp/ccUvJ9IP.o
 .sbss.newvissprite
                0x00000000        0x4 /tmp/ccUvJ9IP.o
 .text          0x00000000        0x0 /tmp/ccWcMzqM.o
 .data          0x00000000        0x0 /tmp/ccWcMzqM.o
 .bss           0x00000000        0x0 /tmp/ccWcMzqM.o
 .rodata.str1.4
                0x00000000      0x577 /tmp/ccWcMzqM.o
 .data.S_sfx    0x00000000      0xf54 /tmp/ccWcMzqM.o
 .data.S_music  0x00000000      0x440 /tmp/ccWcMzqM.o
 .comment       0x00000000       0x10 /tmp/ccWcMzqM.o
 .note.GNU-stack
                0x00000000        0x0 /tmp/ccWcMzqM.o
 .riscv.attributes
                0x00000000       0x33 /tmp/ccWcMzqM.o
 .text          0x00000000        0x0 /tmp/cchLfgF1.o
 .data          0x00000000        0x0 /tmp/cchLfgF1.o
 .bss           0x00000000        0x0 /tmp/cchLfgF1.o
 .text          0x00000000        0x0 /tmp/ccmkZrYQ.o
 .data          0x00000000        0x0 /tmp/ccmkZrYQ.o
 .bss           0x00000000        0x0 /tmp/ccmkZrYQ.o
 .rodata.ST_unloadGraphics.str1.4
                0x00000000       0x19 /tmp/ccmkZrYQ.o
 .text.ST_unloadGraphics
                0x00000000      0x294 /tmp/ccmkZrYQ.o
 .text.ST_unloadData
                0x00000000        0x8 /tmp/ccmkZrYQ.o
 .text          0x00000000        0x0 /tmp/ccTxiJKs.o
 .data          0x00000000        0x0 /tmp/ccTxiJKs.o
 .bss           0x00000000        0x0 /tmp/ccTxiJKs.o
 .text          0x00000000        0x0 /tmp/ccGmmR0A.o
 .data          0x00000000        0x0 /tmp/ccGmmR0A.o
 .bss           0x00000000        0x0 /tmp/ccGmmR0A.o
 .text.V_GetBlock
                0x00000000       0x8c /tmp/ccGmmR0A.o
 .text          0x00000000        0x0 /tmp/ccUXxFQp.o
 .data          0x00000000        0x0 /tmp/ccUXxFQp.o
 .bss           0x00000000        0x0 /tmp/ccUXxFQp.o
 .text.WI_Responder
                0x00000000        0x8 /tmp/ccUXxFQp.o
 .text.WI_drawAnimatedBack
                0x00000000        0x4 /tmp/ccUXxFQp.o
 .text.WI_End   0x00000000        0x8 /tmp/ccUXxFQp.o
 .text          0x00000000        0x0 /tmp/cckYeBJT.o
 .data          0x00000000        0x0 /tmp/cckYeBJT.o
 .bss           0x00000000        0x0 /tmp/cckYeBJT.o
 .text.W_InitFile
                0x00000000       0x28 /tmp/cckYeBJT.o
 .text.W_NumLumps
                0x00000000        0xc /tmp/cckYeBJT.o
 .rodata.W_Profile.str1.4
                0x00000000       0x1e /tmp/cckYeBJT.o
 .text.W_Profile
                0x00000000      0x1e0 /tmp/cckYeBJT.o
 .sbss.profilecount
                0x00000000        0x4 /tmp/cckYeBJT.o
 .bss.info      0x00000000    0x186a0 /tmp/cckYeBJT.o
 .text          0x00000000        0x0 /tmp/ccj4PUoF.o
 .data          0x00000000        0x0 /tmp/ccj4PUoF.o
 .bss           0x00000000        0x0 /tmp/ccj4PUoF.o
 .text.Z_ClearZone
                0x00000000       0x3c /tmp/ccj4PUoF.o
 .rodata.Z_DumpHeap.str1.4
                0x00000000       0xf0 /tmp/ccj4PUoF.o
 .text.Z_DumpHeap
                0x00000000      0x12c /tmp/ccj4PUoF.o
 .text.Z_FileDumpHeap
                0x00000000      0x110 /tmp/ccj4PUoF.o
 .text.Z_FreeMemory
                0x00000000       0x40 /tmp/ccj4PUoF.o
 .text          0x00000000        0x0 /tmp/ccp2R3Ps.o
 .data          0x00000000        0x0 /tmp/ccp2R3Ps.o
 .bss           0x00000000        0x0 /tmp/ccp2R3Ps.o
 .bss.mapdir    0x00000000      0x400 /tmp/ccp2R3Ps.o
 .bss.wadfile   0x00000000      0x400 /tmp/ccp2R3Ps.o
 .sbss.drone    0x00000000        0x4 /tmp/ccp2R3Ps.o
 .text          0x00000000        0x0 /tmp/ccAXYIlt.o
 .data          0x00000000        0x0 /tmp/ccAXYIlt.o
 .bss           0x00000000        0x0 /tmp/ccAXYIlt.o
 .text          0x00000000        0x0 /tmp/cc7CcWHw.o
 .data          0x00000000        0x0 /tmp/cc7CcWHw.o
 .bss           0x00000000        0x0 /tmp/cc7CcWHw.o
 .text          0x00000000        0x0 /tmp/cc5O2cYg.o
 .data          0x00000000        0x0 /tmp/cc5O2cYg.o
 .bss           0x00000000        0x0 /tmp/cc5O2cYg.o
 .text.I_InitSound
                0x00000000        0x4 /tmp/cc5O2cYg.o
 .text.I_UpdateSound
                0x00000000        0x4 /tmp/cc5O2cYg.o
 .text.I_SubmitSound
                0x00000000        0x4 /tmp/cc5O2cYg.o
 .text.I_ShutdownSound
                0x00000000        0x4 /tmp/cc5O2cYg.o
 .text.I_SetChannels
                0x00000000        0x4 /tmp/cc5O2cYg.o
 .text.I_GetSfxLumpNum
                0x00000000        0x8 /tmp/cc5O2cYg.o
 .text.I_StartSound
                0x00000000        0x8 /tmp/cc5O2cYg.o
 .text.I_StopSound
                0x00000000        0x4 /tmp/cc5O2cYg.o
 .text.I_SoundIsPlaying
                0x00000000        0x8 /tmp/cc5O2cYg.o
 .text.I_UpdateSoundParams
                0x00000000        0x4 /tmp/cc5O2cYg.o
 .text.I_InitMusic
                0x00000000        0x4 /tmp/cc5O2cYg.o
 .text.I_ShutdownMusic
                0x00000000        0x4 /tmp/cc5O2cYg.o
 .text.I_SetMusicVolume
                0x00000000        0x4 /tmp/cc5O2cYg.o
 .text.I_PauseSong
                0x00000000        0x4 /tmp/cc5O2cYg.o
 .text.I_ResumeSong
                0x00000000        0x4 /tmp/cc5O2cYg.o
 .text.I_RegisterSong
                0x00000000        0x8 /tmp/cc5O2cYg.o
 .text.I_PlaySong
                0x00000000        0x4 /tmp/cc5O2cYg.o
 .text.I_StopSong
                0x00000000        0x4 /tmp/cc5O2cYg.o
 .text.I_UnRegisterSong
                0x00000000        0x4 /tmp/cc5O2cYg.o
 .comment       0x00000000       0x10 /tmp/cc5O2cYg.o
 .note.GNU-stack
                0x00000000        0x0 /tmp/cc5O2cYg.o
 .riscv.attributes
                0x00000000       0x33 /tmp/cc5O2cYg.o
 .text          0x00000000        0x0 /tmp/ccA3sui6.o
 .data          0x00000000        0x0 /tmp/ccA3sui6.o
 .bss           0x00000000        0x0 /tmp/ccA3sui6.o
 .text.I_AllocLow
                0x00000000       0x40 /tmp/ccA3sui6.o
 .text          0x00000000        0x0 /tmp/ccx6M4gp.o
 .data          0x00000000        0x0 /tmp/ccx6M4gp.o
 .bss           0x00000000        0x0 /tmp/ccx6M4gp.o
 .text          0x00000000        0x0 /tmp/ccb1royM.o
 .data          0x00000000        0x0 /tmp/ccb1royM.o
 .bss           0x00000000        0x0 /tmp/ccb1royM.o
 .text.S_StartSoundAtVolume
                0x00000000        0x4 /tmp/ccb1royM.o
 .text.S_UpdateSounds
                0x00000000        0x4 /tmp/ccb1royM.o
 .text.S_StopMusic
                0x00000000        0x4 /tmp/ccb1royM.o
 .text          0x00000000        0x0 /tmp/cchsEYcK.o
 .data          0x00000000        0x0 /tmp/cchsEYcK.o
 .bss           0x00000000        0x0 /tmp/cchsEYcK.o
 .text.console_init
                0x00000000       0x10 /tmp/cchsEYcK.o
 .text          0x00000000        0x0 /tmp/cc9bKNsH.o
 .data          0x00000000        0x0 /tmp/cc9bKNsH.o
 .bss           0x00000000        0x0 /tmp/cc9bKNsH.o
 .text.access   0x00000000       0x7c /tmp/cc9bKNsH.o
 .text          0x00000000        0x0 /tmp/ccGzfaEn.o
 .data          0x00000000        0x0 /tmp/ccGzfaEn.o
 .bss           0x00000000        0x0 /tmp/ccGzfaEn.o
 .text.mini_snprintf
                0x00000000       0x38 /tmp/ccGzfaEn.o
 .text          0x00000000        0x0 /tmp/ccucBjw5.o
 .data          0x00000000        0x0 /tmp/ccucBjw5.o
 .bss           0x00000000        0x0 /tmp/ccucBjw5.o
 .text.csr_read_mcycle
                0x00000000        0xc /tmp/ccucBjw5.o
 .text.clock    0x00000000       0x1c /tmp/ccucBjw5.o
 .text.csr_read_minstret
                0x00000000        0xc /tmp/ccucBjw5.o
 .text.get_instret
                0x00000000        0x8 /tmp/ccucBjw5.o
 .text.disable_f
                0x00000000        0xc /tmp/ccucBjw5.o
 .text.enable_f
                0x00000000        0xc /tmp/ccucBjw5.o
 .text.csr_read_misa
                0x00000000        0x8 /tmp/ccucBjw5.o
 .text.csr_set_bit_misa
                0x00000000        0x8 /tmp/ccucBjw5.o
 .text.csr_clear_bit_misa
                0x00000000        0x8 /tmp/ccucBjw5.o
 .rodata.test_pass.str1.4
                0x00000000        0x6 /tmp/ccucBjw5.o
 .text.test_pass
                0x00000000       0x20 /tmp/ccucBjw5.o
 .rodata.test_fail.str1.4
                0x00000000        0x6 /tmp/ccucBjw5.o
 .text.test_fail
                0x00000000       0x24 /tmp/ccucBjw5.o
 .text.test_end
                0x00000000        0x8 /tmp/ccucBjw5.o
 .text.init_uart
                0x00000000        0x8 /tmp/ccucBjw5.o
 .text.enable_uart
                0x00000000       0x14 /tmp/ccucBjw5.o
 .text.disable_uart
                0x00000000       0x14 /tmp/ccucBjw5.o
 .text.gpo_init
                0x00000000        0x8 /tmp/ccucBjw5.o
 .text.gpo_set_bit
                0x00000000       0x28 /tmp/ccucBjw5.o
 .text.gpo_write
                0x00000000        0x8 /tmp/ccucBjw5.o
 .text.gpi_read
                0x00000000        0x8 /tmp/ccucBjw5.o
 .text.gpi_read_bit
                0x00000000       0x10 /tmp/ccucBjw5.o
 .text.delay    0x00000000       0x38 /tmp/ccucBjw5.o
 .text          0x00000000        0x0 /tmp/cco7SOxs.o
 .data          0x00000000        0x0 /tmp/cco7SOxs.o
 .bss           0x00000000        0x0 /tmp/cco7SOxs.o
 .text          0x00000000        0x0 /tmp/ccaJXZd9.o
 .data          0x00000000        0x0 /tmp/ccaJXZd9.o
 .bss           0x00000000        0x0 /tmp/ccaJXZd9.o
 .text          0x00000000        0x0 /prog/riscv/lib/gcc/riscv64-unknown-elf/14.2.0/../../../../riscv64-unknown-elf/lib/rv32im_zicsr/ilp32/libc_nano.a(libc_a-abs.o)
 .data          0x00000000        0x0 /prog/riscv/lib/gcc/riscv64-unknown-elf/14.2.0/../../../../riscv64-unknown-elf/lib/rv32im_zicsr/ilp32/libc_nano.a(libc_a-abs.o)
 .bss           0x00000000        0x0 /prog/riscv/lib/gcc/riscv64-unknown-elf/14.2.0/../../../../riscv64-unknown-elf/lib/rv32im_zicsr/ilp32/libc_nano.a(libc_a-abs.o)
 .text          0x00000000        0x0 /prog/riscv/lib/gcc/riscv64-unknown-elf/14.2.0/../../../../riscv64-unknown-elf/lib/rv32im_zicsr/ilp32/libc_nano.a(libc_a-atoi.o)
 .data          0x00000000        0x0 /prog/riscv/lib/gcc/riscv64-unknown-elf/14.2.0/../../../../riscv64-unknown-elf/lib/rv32im_zicsr/ilp32/libc_nano.a(libc_a-atoi.o)
 .bss           0x00000000        0x0 /prog/riscv/lib/gcc/riscv64-unknown-elf/14.2.0/../../../../riscv64-unknown-elf/lib/rv32im_zicsr/ilp32/libc_nano.a(libc_a-atoi.o)
 .text._atoi_r  0x00000000       0x10 /prog/riscv/lib/gcc/riscv64-unknown-elf/14.2.0/../../../../riscv64-unknown-elf/lib/rv32im_zicsr/ilp32/libc_nano.a(libc_a-atoi.o)
 .text          0x00000000        0x0 /prog/riscv/lib/gcc/riscv64-unknown-elf/14.2.0/../../../../riscv64-unknown-elf/lib/rv32im_zicsr/ilp32/libc_nano.a(libc_a-calloc.o)
 .data          0x00000000        0x0 /prog/riscv/lib/gcc/riscv64-unknown-elf/14.2.0/../../../../riscv64-unknown-elf/lib/rv32im_zicsr/ilp32/libc_nano.a(libc_a-calloc.o)
 .bss           0x00000000        0x0 /prog/riscv/lib/gcc/riscv64-unknown-elf/14.2.0/../../../../riscv64-unknown-elf/lib/rv32im_zicsr/ilp32/libc_nano.a(libc_a-calloc.o)
 .text          0x00000000        0x0 /prog/riscv/lib/gcc/riscv64-unknown-elf/14.2.0/../../../../riscv64-unknown-elf/lib/rv32im_zicsr/ilp32/libc_nano.a(libc_a-callocr.o)
 .data          0x00000000        0x0 /prog/riscv/lib/gcc/riscv64-unknown-elf/14.2.0/../../../../riscv64-unknown-elf/lib/rv32im_zicsr/ilp32/libc_nano.a(libc_a-callocr.o)
 .bss           0x00000000        0x0 /prog/riscv/lib/gcc/riscv64-unknown-elf/14.2.0/../../../../riscv64-unknown-elf/lib/rv32im_zicsr/ilp32/libc_nano.a(libc_a-callocr.o)
 .text          0x00000000        0x0 /prog/riscv/lib/gcc/riscv64-unknown-elf/14.2.0/../../../../riscv64-unknown-elf/lib/rv32im_zicsr/ilp32/libc_nano.a(libc_a-exit.o)
 .data          0x00000000        0x0 /prog/riscv/lib/gcc/riscv64-unknown-elf/14.2.0/../../../../riscv64-unknown-elf/lib/rv32im_zicsr/ilp32/libc_nano.a(libc_a-exit.o)
 .bss           0x00000000        0x0 /prog/riscv/lib/gcc/riscv64-unknown-elf/14.2.0/../../../../riscv64-unknown-elf/lib/rv32im_zicsr/ilp32/libc_nano.a(libc_a-exit.o)
 .text          0x00000000        0x0 /prog/riscv/lib/gcc/riscv64-unknown-elf/14.2.0/../../../../riscv64-unknown-elf/lib/rv32im_zicsr/ilp32/libc_nano.a(libc_a-malloc.o)
 .data          0x00000000        0x0 /prog/riscv/lib/gcc/riscv64-unknown-elf/14.2.0/../../../../riscv64-unknown-elf/lib/rv32im_zicsr/ilp32/libc_nano.a(libc_a-malloc.o)
 .bss           0x00000000        0x0 /prog/riscv/lib/gcc/riscv64-unknown-elf/14.2.0/../../../../riscv64-unknown-elf/lib/rv32im_zicsr/ilp32/libc_nano.a(libc_a-malloc.o)
 .text.free     0x00000000       0x14 /prog/riscv/lib/gcc/riscv64-unknown-elf/14.2.0/../../../../riscv64-unknown-elf/lib/rv32im_zicsr/ilp32/libc_nano.a(libc_a-malloc.o)
 .text          0x00000000        0x0 /prog/riscv/lib/gcc/riscv64-unknown-elf/14.2.0/../../../../riscv64-unknown-elf/lib/rv32im_zicsr/ilp32/libc_nano.a(libc_a-mallocr.o)
 .data          0x00000000        0x0 /prog/riscv/lib/gcc/riscv64-unknown-elf/14.2.0/../../../../riscv64-unknown-elf/lib/rv32im_zicsr/ilp32/libc_nano.a(libc_a-mallocr.o)
 .bss           0x00000000        0x0 /prog/riscv/lib/gcc/riscv64-unknown-elf/14.2.0/../../../../riscv64-unknown-elf/lib/rv32im_zicsr/ilp32/libc_nano.a(libc_a-mallocr.o)
 .text          0x00000000        0x0 /prog/riscv/lib/gcc/riscv64-unknown-elf/14.2.0/../../../../riscv64-unknown-elf/lib/rv32im_zicsr/ilp32/libc_nano.a(libc_a-mlock.o)
 .data          0x00000000        0x0 /prog/riscv/lib/gcc/riscv64-unknown-elf/14.2.0/../../../../riscv64-unknown-elf/lib/rv32im_zicsr/ilp32/libc_nano.a(libc_a-mlock.o)
 .bss           0x00000000        0x0 /prog/riscv/lib/gcc/riscv64-unknown-elf/14.2.0/../../../../riscv64-unknown-elf/lib/rv32im_zicsr/ilp32/libc_nano.a(libc_a-mlock.o)
 .text          0x00000000        0x0 /prog/riscv/lib/gcc/riscv64-unknown-elf/14.2.0/../../../../riscv64-unknown-elf/lib/rv32im_zicsr/ilp32/libc_nano.a(libc_a-realloc.o)
 .data          0x00000000        0x0 /prog/riscv/lib/gcc/riscv64-unknown-elf/14.2.0/../../../../riscv64-unknown-elf/lib/rv32im_zicsr/ilp32/libc_nano.a(libc_a-realloc.o)
 .bss           0x00000000        0x0 /prog/riscv/lib/gcc/riscv64-unknown-elf/14.2.0/../../../../riscv64-unknown-elf/lib/rv32im_zicsr/ilp32/libc_nano.a(libc_a-realloc.o)
 .text          0x00000000        0x0 /prog/riscv/lib/gcc/riscv64-unknown-elf/14.2.0/../../../../riscv64-unknown-elf/lib/rv32im_zicsr/ilp32/libc_nano.a(libc_a-reallocr.o)
 .data          0x00000000        0x0 /prog/riscv/lib/gcc/riscv64-unknown-elf/14.2.0/../../../../riscv64-unknown-elf/lib/rv32im_zicsr/ilp32/libc_nano.a(libc_a-reallocr.o)
 .bss           0x00000000        0x0 /prog/riscv/lib/gcc/riscv64-unknown-elf/14.2.0/../../../../riscv64-unknown-elf/lib/rv32im_zicsr/ilp32/libc_nano.a(libc_a-reallocr.o)
 .text          0x00000000        0x0 /prog/riscv/lib/gcc/riscv64-unknown-elf/14.2.0/../../../../riscv64-unknown-elf/lib/rv32im_zicsr/ilp32/libc_nano.a(libc_a-strtol.o)
 .data          0x00000000        0x0 /prog/riscv/lib/gcc/riscv64-unknown-elf/14.2.0/../../../../riscv64-unknown-elf/lib/rv32im_zicsr/ilp32/libc_nano.a(libc_a-strtol.o)
 .bss           0x00000000        0x0 /prog/riscv/lib/gcc/riscv64-unknown-elf/14.2.0/../../../../riscv64-unknown-elf/lib/rv32im_zicsr/ilp32/libc_nano.a(libc_a-strtol.o)
 .text.strtol_l
                0x00000000       0x1c /prog/riscv/lib/gcc/riscv64-unknown-elf/14.2.0/../../../../riscv64-unknown-elf/lib/rv32im_zicsr/ilp32/libc_nano.a(libc_a-strtol.o)
 .text          0x00000000        0x0 /prog/riscv/lib/gcc/riscv64-unknown-elf/14.2.0/../../../../riscv64-unknown-elf/lib/rv32im_zicsr/ilp32/libc_nano.a(libc_a-ctype_.o)
 .data          0x00000000        0x0 /prog/riscv/lib/gcc/riscv64-unknown-elf/14.2.0/../../../../riscv64-unknown-elf/lib/rv32im_zicsr/ilp32/libc_nano.a(libc_a-ctype_.o)
 .bss           0x00000000        0x0 /prog/riscv/lib/gcc/riscv64-unknown-elf/14.2.0/../../../../riscv64-unknown-elf/lib/rv32im_zicsr/ilp32/libc_nano.a(libc_a-ctype_.o)
 .text          0x00000000        0x0 /prog/riscv/lib/gcc/riscv64-unknown-elf/14.2.0/../../../../riscv64-unknown-elf/lib/rv32im_zicsr/ilp32/libc_nano.a(libc_a-nano-vfprintf.o)
 .data          0x00000000        0x0 /prog/riscv/lib/gcc/riscv64-unknown-elf/14.2.0/../../../../riscv64-unknown-elf/lib/rv32im_zicsr/ilp32/libc_nano.a(libc_a-nano-vfprintf.o)
 .bss           0x00000000        0x0 /prog/riscv/lib/gcc/riscv64-unknown-elf/14.2.0/../../../../riscv64-unknown-elf/lib/rv32im_zicsr/ilp32/libc_nano.a(libc_a-nano-vfprintf.o)
 .text.__sprint_r
                0x00000000       0x40 /prog/riscv/lib/gcc/riscv64-unknown-elf/14.2.0/../../../../riscv64-unknown-elf/lib/rv32im_zicsr/ilp32/libc_nano.a(libc_a-nano-vfprintf.o)
 .text          0x00000000        0x0 /prog/riscv/lib/gcc/riscv64-unknown-elf/14.2.0/../../../../riscv64-unknown-elf/lib/rv32im_zicsr/ilp32/libc_nano.a(libc_a-nano-vfprintf_i.o)
 .data          0x00000000        0x0 /prog/riscv/lib/gcc/riscv64-unknown-elf/14.2.0/../../../../riscv64-unknown-elf/lib/rv32im_zicsr/ilp32/libc_nano.a(libc_a-nano-vfprintf_i.o)
 .bss           0x00000000        0x0 /prog/riscv/lib/gcc/riscv64-unknown-elf/14.2.0/../../../../riscv64-unknown-elf/lib/rv32im_zicsr/ilp32/libc_nano.a(libc_a-nano-vfprintf_i.o)
 .text          0x00000000        0x0 /prog/riscv/lib/gcc/riscv64-unknown-elf/14.2.0/../../../../riscv64-unknown-elf/lib/rv32im_zicsr/ilp32/libc_nano.a(libc_a-fclose.o)
 .data          0x00000000        0x0 /prog/riscv/lib/gcc/riscv64-unknown-elf/14.2.0/../../../../riscv64-unknown-elf/lib/rv32im_zicsr/ilp32/libc_nano.a(libc_a-fclose.o)
 .bss           0x00000000        0x0 /prog/riscv/lib/gcc/riscv64-unknown-elf/14.2.0/../../../../riscv64-unknown-elf/lib/rv32im_zicsr/ilp32/libc_nano.a(libc_a-fclose.o)
 .text          0x00000000        0x0 /prog/riscv/lib/gcc/riscv64-unknown-elf/14.2.0/../../../../riscv64-unknown-elf/lib/rv32im_zicsr/ilp32/libc_nano.a(libc_a-fflush.o)
 .data          0x00000000        0x0 /prog/riscv/lib/gcc/riscv64-unknown-elf/14.2.0/../../../../riscv64-unknown-elf/lib/rv32im_zicsr/ilp32/libc_nano.a(libc_a-fflush.o)
 .bss           0x00000000        0x0 /prog/riscv/lib/gcc/riscv64-unknown-elf/14.2.0/../../../../riscv64-unknown-elf/lib/rv32im_zicsr/ilp32/libc_nano.a(libc_a-fflush.o)
 .text          0x00000000        0x0 /prog/riscv/lib/gcc/riscv64-unknown-elf/14.2.0/../../../../riscv64-unknown-elf/lib/rv32im_zicsr/ilp32/libc_nano.a(libc_a-findfp.o)
 .data          0x00000000        0x0 /prog/riscv/lib/gcc/riscv64-unknown-elf/14.2.0/../../../../riscv64-unknown-elf/lib/rv32im_zicsr/ilp32/libc_nano.a(libc_a-findfp.o)
 .bss           0x00000000        0x0 /prog/riscv/lib/gcc/riscv64-unknown-elf/14.2.0/../../../../riscv64-unknown-elf/lib/rv32im_zicsr/ilp32/libc_nano.a(libc_a-findfp.o)
 .text.__fp_lock
                0x00000000        0x8 /prog/riscv/lib/gcc/riscv64-unknown-elf/14.2.0/../../../../riscv64-unknown-elf/lib/rv32im_zicsr/ilp32/libc_nano.a(libc_a-findfp.o)
 .text.__fp_unlock
                0x00000000        0x8 /prog/riscv/lib/gcc/riscv64-unknown-elf/14.2.0/../../../../riscv64-unknown-elf/lib/rv32im_zicsr/ilp32/libc_nano.a(libc_a-findfp.o)
 .text.__fp_lock_all
                0x00000000       0x1c /prog/riscv/lib/gcc/riscv64-unknown-elf/14.2.0/../../../../riscv64-unknown-elf/lib/rv32im_zicsr/ilp32/libc_nano.a(libc_a-findfp.o)
 .text.__fp_unlock_all
                0x00000000       0x1c /prog/riscv/lib/gcc/riscv64-unknown-elf/14.2.0/../../../../riscv64-unknown-elf/lib/rv32im_zicsr/ilp32/libc_nano.a(libc_a-findfp.o)
 .text          0x00000000        0x0 /prog/riscv/lib/gcc/riscv64-unknown-elf/14.2.0/../../../../riscv64-unknown-elf/lib/rv32im_zicsr/ilp32/libc_nano.a(libc_a-fopen.o)
 .data          0x00000000        0x0 /prog/riscv/lib/gcc/riscv64-unknown-elf/14.2.0/../../../../riscv64-unknown-elf/lib/rv32im_zicsr/ilp32/libc_nano.a(libc_a-fopen.o)
 .bss           0x00000000        0x0 /prog/riscv/lib/gcc/riscv64-unknown-elf/14.2.0/../../../../riscv64-unknown-elf/lib/rv32im_zicsr/ilp32/libc_nano.a(libc_a-fopen.o)
 .text          0x00000000        0x0 /prog/riscv/lib/gcc/riscv64-unknown-elf/14.2.0/../../../../riscv64-unknown-elf/lib/rv32im_zicsr/ilp32/libc_nano.a(libc_a-fprintf.o)
 .data          0x00000000        0x0 /prog/riscv/lib/gcc/riscv64-unknown-elf/14.2.0/../../../../riscv64-unknown-elf/lib/rv32im_zicsr/ilp32/libc_nano.a(libc_a-fprintf.o)
 .bss           0x00000000        0x0 /prog/riscv/lib/gcc/riscv64-unknown-elf/14.2.0/../../../../riscv64-unknown-elf/lib/rv32im_zicsr/ilp32/libc_nano.a(libc_a-fprintf.o)
 .text._fprintf_r
                0x00000000       0x38 /prog/riscv/lib/gcc/riscv64-unknown-elf/14.2.0/../../../../riscv64-unknown-elf/lib/rv32im_zicsr/ilp32/libc_nano.a(libc_a-fprintf.o)
 .text          0x00000000        0x0 /prog/riscv/lib/gcc/riscv64-unknown-elf/14.2.0/../../../../riscv64-unknown-elf/lib/rv32im_zicsr/ilp32/libc_nano.a(libc_a-fscanf.o)
 .data          0x00000000        0x0 /prog/riscv/lib/gcc/riscv64-unknown-elf/14.2.0/../../../../riscv64-unknown-elf/lib/rv32im_zicsr/ilp32/libc_nano.a(libc_a-fscanf.o)
 .bss           0x00000000        0x0 /prog/riscv/lib/gcc/riscv64-unknown-elf/14.2.0/../../../../riscv64-unknown-elf/lib/rv32im_zicsr/ilp32/libc_nano.a(libc_a-fscanf.o)
 .text._fscanf_r
                0x00000000       0x38 /prog/riscv/lib/gcc/riscv64-unknown-elf/14.2.0/../../../../riscv64-unknown-elf/lib/rv32im_zicsr/ilp32/libc_nano.a(libc_a-fscanf.o)
 .text          0x00000000        0x0 /prog/riscv/lib/gcc/riscv64-unknown-elf/14.2.0/../../../../riscv64-unknown-elf/lib/rv32im_zicsr/ilp32/libc_nano.a(libc_a-fseek.o)
 .data          0x00000000        0x0 /prog/riscv/lib/gcc/riscv64-unknown-elf/14.2.0/../../../../riscv64-unknown-elf/lib/rv32im_zicsr/ilp32/libc_nano.a(libc_a-fseek.o)
 .bss           0x00000000        0x0 /prog/riscv/lib/gcc/riscv64-unknown-elf/14.2.0/../../../../riscv64-unknown-elf/lib/rv32im_zicsr/ilp32/libc_nano.a(libc_a-fseek.o)
 .text.fseek    0x00000000       0x1c /prog/riscv/lib/gcc/riscv64-unknown-elf/14.2.0/../../../../riscv64-unknown-elf/lib/rv32im_zicsr/ilp32/libc_nano.a(libc_a-fseek.o)
 .text          0x00000000        0x0 /prog/riscv/lib/gcc/riscv64-unknown-elf/14.2.0/../../../../riscv64-unknown-elf/lib/rv32im_zicsr/ilp32/libc_nano.a(libc_a-fvwrite.o)
 .data          0x00000000        0x0 /prog/riscv/lib/gcc/riscv64-unknown-elf/14.2.0/../../../../riscv64-unknown-elf/lib/rv32im_zicsr/ilp32/libc_nano.a(libc_a-fvwrite.o)
 .bss           0x00000000        0x0 /prog/riscv/lib/gcc/riscv64-unknown-elf/14.2.0/../../../../riscv64-unknown-elf/lib/rv32im_zicsr/ilp32/libc_nano.a(libc_a-fvwrite.o)
 .text.__sfvwrite_r
                0x00000000      0x490 /prog/riscv/lib/gcc/riscv64-unknown-elf/14.2.0/../../../../riscv64-unknown-elf/lib/rv32im_zicsr/ilp32/libc_nano.a(libc_a-fvwrite.o)
 .comment       0x00000000       0x13 /prog/riscv/lib/gcc/riscv64-unknown-elf/14.2.0/../../../../riscv64-unknown-elf/lib/rv32im_zicsr/ilp32/libc_nano.a(libc_a-fvwrite.o)
 .note.GNU-stack
                0x00000000        0x0 /prog/riscv/lib/gcc/riscv64-unknown-elf/14.2.0/../../../../riscv64-unknown-elf/lib/rv32im_zicsr/ilp32/libc_nano.a(libc_a-fvwrite.o)
 .riscv.attributes
                0x00000000       0x33 /prog/riscv/lib/gcc/riscv64-unknown-elf/14.2.0/../../../../riscv64-unknown-elf/lib/rv32im_zicsr/ilp32/libc_nano.a(libc_a-fvwrite.o)
 .text          0x00000000        0x0 /prog/riscv/lib/gcc/riscv64-unknown-elf/14.2.0/../../../../riscv64-unknown-elf/lib/rv32im_zicsr/ilp32/libc_nano.a(libc_a-fwalk.o)
 .data          0x00000000        0x0 /prog/riscv/lib/gcc/riscv64-unknown-elf/14.2.0/../../../../riscv64-unknown-elf/lib/rv32im_zicsr/ilp32/libc_nano.a(libc_a-fwalk.o)
 .bss           0x00000000        0x0 /prog/riscv/lib/gcc/riscv64-unknown-elf/14.2.0/../../../../riscv64-unknown-elf/lib/rv32im_zicsr/ilp32/libc_nano.a(libc_a-fwalk.o)
 .text          0x00000000        0x0 /prog/riscv/lib/gcc/riscv64-unknown-elf/14.2.0/../../../../riscv64-unknown-elf/lib/rv32im_zicsr/ilp32/libc_nano.a(libc_a-printf.o)
 .data          0x00000000        0x0 /prog/riscv/lib/gcc/riscv64-unknown-elf/14.2.0/../../../../riscv64-unknown-elf/lib/rv32im_zicsr/ilp32/libc_nano.a(libc_a-printf.o)
 .bss           0x00000000        0x0 /prog/riscv/lib/gcc/riscv64-unknown-elf/14.2.0/../../../../riscv64-unknown-elf/lib/rv32im_zicsr/ilp32/libc_nano.a(libc_a-printf.o)
 .text._printf_r
                0x00000000       0x44 /prog/riscv/lib/gcc/riscv64-unknown-elf/14.2.0/../../../../riscv64-unknown-elf/lib/rv32im_zicsr/ilp32/libc_nano.a(libc_a-printf.o)
 .text          0x00000000        0x0 /prog/riscv/lib/gcc/riscv64-unknown-elf/14.2.0/../../../../riscv64-unknown-elf/lib/rv32im_zicsr/ilp32/libc_nano.a(libc_a-setbuf.o)
 .data          0x00000000        0x0 /prog/riscv/lib/gcc/riscv64-unknown-elf/14.2.0/../../../../riscv64-unknown-elf/lib/rv32im_zicsr/ilp32/libc_nano.a(libc_a-setbuf.o)
 .bss           0x00000000        0x0 /prog/riscv/lib/gcc/riscv64-unknown-elf/14.2.0/../../../../riscv64-unknown-elf/lib/rv32im_zicsr/ilp32/libc_nano.a(libc_a-setbuf.o)
 .text          0x00000000        0x0 /prog/riscv/lib/gcc/riscv64-unknown-elf/14.2.0/../../../../riscv64-unknown-elf/lib/rv32im_zicsr/ilp32/libc_nano.a(libc_a-setvbuf.o)
 .data          0x00000000        0x0 /prog/riscv/lib/gcc/riscv64-unknown-elf/14.2.0/../../../../riscv64-unknown-elf/lib/rv32im_zicsr/ilp32/libc_nano.a(libc_a-setvbuf.o)
 .bss           0x00000000        0x0 /prog/riscv/lib/gcc/riscv64-unknown-elf/14.2.0/../../../../riscv64-unknown-elf/lib/rv32im_zicsr/ilp32/libc_nano.a(libc_a-setvbuf.o)
 .text          0x00000000        0x0 /prog/riscv/lib/gcc/riscv64-unknown-elf/14.2.0/../../../../riscv64-unknown-elf/lib/rv32im_zicsr/ilp32/libc_nano.a(libc_a-sprintf.o)
 .data          0x00000000        0x0 /prog/riscv/lib/gcc/riscv64-unknown-elf/14.2.0/../../../../riscv64-unknown-elf/lib/rv32im_zicsr/ilp32/libc_nano.a(libc_a-sprintf.o)
 .bss           0x00000000        0x0 /prog/riscv/lib/gcc/riscv64-unknown-elf/14.2.0/../../../../riscv64-unknown-elf/lib/rv32im_zicsr/ilp32/libc_nano.a(libc_a-sprintf.o)
 .text._sprintf_r
                0x00000000       0x6c /prog/riscv/lib/gcc/riscv64-unknown-elf/14.2.0/../../../../riscv64-unknown-elf/lib/rv32im_zicsr/ilp32/libc_nano.a(libc_a-sprintf.o)
 .text          0x00000000        0x0 /prog/riscv/lib/gcc/riscv64-unknown-elf/14.2.0/../../../../riscv64-unknown-elf/lib/rv32im_zicsr/ilp32/libc_nano.a(libc_a-sscanf.o)
 .data          0x00000000        0x0 /prog/riscv/lib/gcc/riscv64-unknown-elf/14.2.0/../../../../riscv64-unknown-elf/lib/rv32im_zicsr/ilp32/libc_nano.a(libc_a-sscanf.o)
 .bss           0x00000000        0x0 /prog/riscv/lib/gcc/riscv64-unknown-elf/14.2.0/../../../../riscv64-unknown-elf/lib/rv32im_zicsr/ilp32/libc_nano.a(libc_a-sscanf.o)
 .text._sscanf_r
                0x00000000       0x98 /prog/riscv/lib/gcc/riscv64-unknown-elf/14.2.0/../../../../riscv64-unknown-elf/lib/rv32im_zicsr/ilp32/libc_nano.a(libc_a-sscanf.o)
 .text          0x00000000        0x0 /prog/riscv/lib/gcc/riscv64-unknown-elf/14.2.0/../../../../riscv64-unknown-elf/lib/rv32im_zicsr/ilp32/libc_nano.a(libc_a-stdio.o)
 .data          0x00000000        0x0 /prog/riscv/lib/gcc/riscv64-unknown-elf/14.2.0/../../../../riscv64-unknown-elf/lib/rv32im_zicsr/ilp32/libc_nano.a(libc_a-stdio.o)
 .bss           0x00000000        0x0 /prog/riscv/lib/gcc/riscv64-unknown-elf/14.2.0/../../../../riscv64-unknown-elf/lib/rv32im_zicsr/ilp32/libc_nano.a(libc_a-stdio.o)
 .text          0x00000000        0x0 /prog/riscv/lib/gcc/riscv64-unknown-elf/14.2.0/../../../../riscv64-unknown-elf/lib/rv32im_zicsr/ilp32/libc_nano.a(libc_a-wbuf.o)
 .data          0x00000000        0x0 /prog/riscv/lib/gcc/riscv64-unknown-elf/14.2.0/../../../../riscv64-unknown-elf/lib/rv32im_zicsr/ilp32/libc_nano.a(libc_a-wbuf.o)
 .bss           0x00000000        0x0 /prog/riscv/lib/gcc/riscv64-unknown-elf/14.2.0/../../../../riscv64-unknown-elf/lib/rv32im_zicsr/ilp32/libc_nano.a(libc_a-wbuf.o)
 .text.__swbuf  0x00000000       0x18 /prog/riscv/lib/gcc/riscv64-unknown-elf/14.2.0/../../../../riscv64-unknown-elf/lib/rv32im_zicsr/ilp32/libc_nano.a(libc_a-wbuf.o)
 .text          0x00000000        0x0 /prog/riscv/lib/gcc/riscv64-unknown-elf/14.2.0/../../../../riscv64-unknown-elf/lib/rv32im_zicsr/ilp32/libc_nano.a(libc_a-wsetup.o)
 .data          0x00000000        0x0 /prog/riscv/lib/gcc/riscv64-unknown-elf/14.2.0/../../../../riscv64-unknown-elf/lib/rv32im_zicsr/ilp32/libc_nano.a(libc_a-wsetup.o)
 .bss           0x00000000        0x0 /prog/riscv/lib/gcc/riscv64-unknown-elf/14.2.0/../../../../riscv64-unknown-elf/lib/rv32im_zicsr/ilp32/libc_nano.a(libc_a-wsetup.o)
 .text          0x00000000        0x0 /prog/riscv/lib/gcc/riscv64-unknown-elf/14.2.0/../../../../riscv64-unknown-elf/lib/rv32im_zicsr/ilp32/libc_nano.a(libc_a-fseeko.o)
 .data          0x00000000        0x0 /prog/riscv/lib/gcc/riscv64-unknown-elf/14.2.0/../../../../riscv64-unknown-elf/lib/rv32im_zicsr/ilp32/libc_nano.a(libc_a-fseeko.o)
 .bss           0x00000000        0x0 /prog/riscv/lib/gcc/riscv64-unknown-elf/14.2.0/../../../../riscv64-unknown-elf/lib/rv32im_zicsr/ilp32/libc_nano.a(libc_a-fseeko.o)
 .text.fseeko   0x00000000       0x1c /prog/riscv/lib/gcc/riscv64-unknown-elf/14.2.0/../../../../riscv64-unknown-elf/lib/rv32im_zicsr/ilp32/libc_nano.a(libc_a-fseeko.o)
 .text          0x00000000        0x0 /prog/riscv/lib/gcc/riscv64-unknown-elf/14.2.0/../../../../riscv64-unknown-elf/lib/rv32im_zicsr/ilp32/libc_nano.a(libc_a-memchr.o)
 .data          0x00000000        0x0 /prog/riscv/lib/gcc/riscv64-unknown-elf/14.2.0/../../../../riscv64-unknown-elf/lib/rv32im_zicsr/ilp32/libc_nano.a(libc_a-memchr.o)
 .bss           0x00000000        0x0 /prog/riscv/lib/gcc/riscv64-unknown-elf/14.2.0/../../../../riscv64-unknown-elf/lib/rv32im_zicsr/ilp32/libc_nano.a(libc_a-memchr.o)
 .text          0x00000000        0x0 /prog/riscv/lib/gcc/riscv64-unknown-elf/14.2.0/../../../../riscv64-unknown-elf/lib/rv32im_zicsr/ilp32/libc_nano.a(libc_a-strcasecmp.o)
 .data          0x00000000        0x0 /prog/riscv/lib/gcc/riscv64-unknown-elf/14.2.0/../../../../riscv64-unknown-elf/lib/rv32im_zicsr/ilp32/libc_nano.a(libc_a-strcasecmp.o)
 .bss           0x00000000        0x0 /prog/riscv/lib/gcc/riscv64-unknown-elf/14.2.0/../../../../riscv64-unknown-elf/lib/rv32im_zicsr/ilp32/libc_nano.a(libc_a-strcasecmp.o)
 .text          0x00000000        0x0 /prog/riscv/lib/gcc/riscv64-unknown-elf/14.2.0/../../../../riscv64-unknown-elf/lib/rv32im_zicsr/ilp32/libc_nano.a(libc_a-strcat.o)
 .data          0x00000000        0x0 /prog/riscv/lib/gcc/riscv64-unknown-elf/14.2.0/../../../../riscv64-unknown-elf/lib/rv32im_zicsr/ilp32/libc_nano.a(libc_a-strcat.o)
 .bss           0x00000000        0x0 /prog/riscv/lib/gcc/riscv64-unknown-elf/14.2.0/../../../../riscv64-unknown-elf/lib/rv32im_zicsr/ilp32/libc_nano.a(libc_a-strcat.o)
 .text.strcat   0x00000000       0x2c /prog/riscv/lib/gcc/riscv64-unknown-elf/14.2.0/../../../../riscv64-unknown-elf/lib/rv32im_zicsr/ilp32/libc_nano.a(libc_a-strcat.o)
 .comment       0x00000000       0x13 /prog/riscv/lib/gcc/riscv64-unknown-elf/14.2.0/../../../../riscv64-unknown-elf/lib/rv32im_zicsr/ilp32/libc_nano.a(libc_a-strcat.o)
 .note.GNU-stack
                0x00000000        0x0 /prog/riscv/lib/gcc/riscv64-unknown-elf/14.2.0/../../../../riscv64-unknown-elf/lib/rv32im_zicsr/ilp32/libc_nano.a(libc_a-strcat.o)
 .riscv.attributes
                0x00000000       0x33 /prog/riscv/lib/gcc/riscv64-unknown-elf/14.2.0/../../../../riscv64-unknown-elf/lib/rv32im_zicsr/ilp32/libc_nano.a(libc_a-strcat.o)
 .text          0x00000000        0x0 /prog/riscv/lib/gcc/riscv64-unknown-elf/14.2.0/../../../../riscv64-unknown-elf/lib/rv32im_zicsr/ilp32/libc_nano.a(libc_a-strncasecmp.o)
 .data          0x00000000        0x0 /prog/riscv/lib/gcc/riscv64-unknown-elf/14.2.0/../../../../riscv64-unknown-elf/lib/rv32im_zicsr/ilp32/libc_nano.a(libc_a-strncasecmp.o)
 .bss           0x00000000        0x0 /prog/riscv/lib/gcc/riscv64-unknown-elf/14.2.0/../../../../riscv64-unknown-elf/lib/rv32im_zicsr/ilp32/libc_nano.a(libc_a-strncasecmp.o)
 .text          0x00000000        0x0 /prog/riscv/lib/gcc/riscv64-unknown-elf/14.2.0/../../../../riscv64-unknown-elf/lib/rv32im_zicsr/ilp32/libc_nano.a(libc_a-strncmp.o)
 .data          0x00000000        0x0 /prog/riscv/lib/gcc/riscv64-unknown-elf/14.2.0/../../../../riscv64-unknown-elf/lib/rv32im_zicsr/ilp32/libc_nano.a(libc_a-strncmp.o)
 .bss           0x00000000        0x0 /prog/riscv/lib/gcc/riscv64-unknown-elf/14.2.0/../../../../riscv64-unknown-elf/lib/rv32im_zicsr/ilp32/libc_nano.a(libc_a-strncmp.o)
 .text          0x00000000        0x0 /prog/riscv/lib/gcc/riscv64-unknown-elf/14.2.0/../../../../riscv64-unknown-elf/lib/rv32im_zicsr/ilp32/libc_nano.a(libc_a-strncpy.o)
 .data          0x00000000        0x0 /prog/riscv/lib/gcc/riscv64-unknown-elf/14.2.0/../../../../riscv64-unknown-elf/lib/rv32im_zicsr/ilp32/libc_nano.a(libc_a-strncpy.o)
 .bss           0x00000000        0x0 /prog/riscv/lib/gcc/riscv64-unknown-elf/14.2.0/../../../../riscv64-unknown-elf/lib/rv32im_zicsr/ilp32/libc_nano.a(libc_a-strncpy.o)
 .text          0x00000000        0x0 /prog/riscv/lib/gcc/riscv64-unknown-elf/14.2.0/../../../../riscv64-unknown-elf/lib/rv32im_zicsr/ilp32/libc_nano.a(libc_a-closer.o)
 .data          0x00000000        0x0 /prog/riscv/lib/gcc/riscv64-unknown-elf/14.2.0/../../../../riscv64-unknown-elf/lib/rv32im_zicsr/ilp32/libc_nano.a(libc_a-closer.o)
 .bss           0x00000000        0x0 /prog/riscv/lib/gcc/riscv64-unknown-elf/14.2.0/../../../../riscv64-unknown-elf/lib/rv32im_zicsr/ilp32/libc_nano.a(libc_a-closer.o)
 .text          0x00000000        0x0 /prog/riscv/lib/gcc/riscv64-unknown-elf/14.2.0/../../../../riscv64-unknown-elf/lib/rv32im_zicsr/ilp32/libc_nano.a(libc_a-reent.o)
 .data          0x00000000        0x0 /prog/riscv/lib/gcc/riscv64-unknown-elf/14.2.0/../../../../riscv64-unknown-elf/lib/rv32im_zicsr/ilp32/libc_nano.a(libc_a-reent.o)
 .bss           0x00000000        0x0 /prog/riscv/lib/gcc/riscv64-unknown-elf/14.2.0/../../../../riscv64-unknown-elf/lib/rv32im_zicsr/ilp32/libc_nano.a(libc_a-reent.o)
 .text._reclaim_reent
                0x00000000      0x1ac /prog/riscv/lib/gcc/riscv64-unknown-elf/14.2.0/../../../../riscv64-unknown-elf/lib/rv32im_zicsr/ilp32/libc_nano.a(libc_a-reent.o)
 .text          0x00000000        0x0 /prog/riscv/lib/gcc/riscv64-unknown-elf/14.2.0/../../../../riscv64-unknown-elf/lib/rv32im_zicsr/ilp32/libc_nano.a(libc_a-impure.o)
 .data          0x00000000        0x0 /prog/riscv/lib/gcc/riscv64-unknown-elf/14.2.0/../../../../riscv64-unknown-elf/lib/rv32im_zicsr/ilp32/libc_nano.a(libc_a-impure.o)
 .bss           0x00000000        0x0 /prog/riscv/lib/gcc/riscv64-unknown-elf/14.2.0/../../../../riscv64-unknown-elf/lib/rv32im_zicsr/ilp32/libc_nano.a(libc_a-impure.o)
 .text          0x00000000        0x0 /prog/riscv/lib/gcc/riscv64-unknown-elf/14.2.0/../../../../riscv64-unknown-elf/lib/rv32im_zicsr/ilp32/libc_nano.a(libc_a-lseekr.o)
 .data          0x00000000        0x0 /prog/riscv/lib/gcc/riscv64-unknown-elf/14.2.0/../../../../riscv64-unknown-elf/lib/rv32im_zicsr/ilp32/libc_nano.a(libc_a-lseekr.o)
 .bss           0x00000000        0x0 /prog/riscv/lib/gcc/riscv64-unknown-elf/14.2.0/../../../../riscv64-unknown-elf/lib/rv32im_zicsr/ilp32/libc_nano.a(libc_a-lseekr.o)
 .text          0x00000000        0x0 /prog/riscv/lib/gcc/riscv64-unknown-elf/14.2.0/../../../../riscv64-unknown-elf/lib/rv32im_zicsr/ilp32/libc_nano.a(libc_a-openr.o)
 .data          0x00000000        0x0 /prog/riscv/lib/gcc/riscv64-unknown-elf/14.2.0/../../../../riscv64-unknown-elf/lib/rv32im_zicsr/ilp32/libc_nano.a(libc_a-openr.o)
 .bss           0x00000000        0x0 /prog/riscv/lib/gcc/riscv64-unknown-elf/14.2.0/../../../../riscv64-unknown-elf/lib/rv32im_zicsr/ilp32/libc_nano.a(libc_a-openr.o)
 .text          0x00000000        0x0 /prog/riscv/lib/gcc/riscv64-unknown-elf/14.2.0/../../../../riscv64-unknown-elf/lib/rv32im_zicsr/ilp32/libc_nano.a(libc_a-readr.o)
 .data          0x00000000        0x0 /prog/riscv/lib/gcc/riscv64-unknown-elf/14.2.0/../../../../riscv64-unknown-elf/lib/rv32im_zicsr/ilp32/libc_nano.a(libc_a-readr.o)
 .bss           0x00000000        0x0 /prog/riscv/lib/gcc/riscv64-unknown-elf/14.2.0/../../../../riscv64-unknown-elf/lib/rv32im_zicsr/ilp32/libc_nano.a(libc_a-readr.o)
 .text          0x00000000        0x0 /prog/riscv/lib/gcc/riscv64-unknown-elf/14.2.0/../../../../riscv64-unknown-elf/lib/rv32im_zicsr/ilp32/libc_nano.a(libc_a-sbrkr.o)
 .data          0x00000000        0x0 /prog/riscv/lib/gcc/riscv64-unknown-elf/14.2.0/../../../../riscv64-unknown-elf/lib/rv32im_zicsr/ilp32/libc_nano.a(libc_a-sbrkr.o)
 .bss           0x00000000        0x0 /prog/riscv/lib/gcc/riscv64-unknown-elf/14.2.0/../../../../riscv64-unknown-elf/lib/rv32im_zicsr/ilp32/libc_nano.a(libc_a-sbrkr.o)
 .text          0x00000000        0x0 /prog/riscv/lib/gcc/riscv64-unknown-elf/14.2.0/../../../../riscv64-unknown-elf/lib/rv32im_zicsr/ilp32/libc_nano.a(libc_a-writer.o)
 .data          0x00000000        0x0 /prog/riscv/lib/gcc/riscv64-unknown-elf/14.2.0/../../../../riscv64-unknown-elf/lib/rv32im_zicsr/ilp32/libc_nano.a(libc_a-writer.o)
 .bss           0x00000000        0x0 /prog/riscv/lib/gcc/riscv64-unknown-elf/14.2.0/../../../../riscv64-unknown-elf/lib/rv32im_zicsr/ilp32/libc_nano.a(libc_a-writer.o)
 .text          0x00000000        0x0 /prog/riscv/lib/gcc/riscv64-unknown-elf/14.2.0/../../../../riscv64-unknown-elf/lib/rv32im_zicsr/ilp32/libc_nano.a(libc_a-errno.o)
 .data          0x00000000        0x0 /prog/riscv/lib/gcc/riscv64-unknown-elf/14.2.0/../../../../riscv64-unknown-elf/lib/rv32im_zicsr/ilp32/libc_nano.a(libc_a-errno.o)
 .bss           0x00000000        0x0 /prog/riscv/lib/gcc/riscv64-unknown-elf/14.2.0/../../../../riscv64-unknown-elf/lib/rv32im_zicsr/ilp32/libc_nano.a(libc_a-errno.o)
 .text          0x00000000        0x0 /prog/riscv/lib/gcc/riscv64-unknown-elf/14.2.0/../../../../riscv64-unknown-elf/lib/rv32im_zicsr/ilp32/libc_nano.a(libc_a-sysclose.o)
 .data          0x00000000        0x0 /prog/riscv/lib/gcc/riscv64-unknown-elf/14.2.0/../../../../riscv64-unknown-elf/lib/rv32im_zicsr/ilp32/libc_nano.a(libc_a-sysclose.o)
 .bss           0x00000000        0x0 /prog/riscv/lib/gcc/riscv64-unknown-elf/14.2.0/../../../../riscv64-unknown-elf/lib/rv32im_zicsr/ilp32/libc_nano.a(libc_a-sysclose.o)
 .text          0x00000000        0x0 /prog/riscv/lib/gcc/riscv64-unknown-elf/14.2.0/../../../../riscv64-unknown-elf/lib/rv32im_zicsr/ilp32/libc_nano.a(libc_a-sysfstat.o)
 .data          0x00000000        0x0 /prog/riscv/lib/gcc/riscv64-unknown-elf/14.2.0/../../../../riscv64-unknown-elf/lib/rv32im_zicsr/ilp32/libc_nano.a(libc_a-sysfstat.o)
 .bss           0x00000000        0x0 /prog/riscv/lib/gcc/riscv64-unknown-elf/14.2.0/../../../../riscv64-unknown-elf/lib/rv32im_zicsr/ilp32/libc_nano.a(libc_a-sysfstat.o)
 .text          0x00000000        0x0 /prog/riscv/lib/gcc/riscv64-unknown-elf/14.2.0/../../../../riscv64-unknown-elf/lib/rv32im_zicsr/ilp32/libc_nano.a(libc_a-syslseek.o)
 .data          0x00000000        0x0 /prog/riscv/lib/gcc/riscv64-unknown-elf/14.2.0/../../../../riscv64-unknown-elf/lib/rv32im_zicsr/ilp32/libc_nano.a(libc_a-syslseek.o)
 .bss           0x00000000        0x0 /prog/riscv/lib/gcc/riscv64-unknown-elf/14.2.0/../../../../riscv64-unknown-elf/lib/rv32im_zicsr/ilp32/libc_nano.a(libc_a-syslseek.o)
 .text          0x00000000        0x0 /prog/riscv/lib/gcc/riscv64-unknown-elf/14.2.0/../../../../riscv64-unknown-elf/lib/rv32im_zicsr/ilp32/libc_nano.a(libc_a-sysopen.o)
 .data          0x00000000        0x0 /prog/riscv/lib/gcc/riscv64-unknown-elf/14.2.0/../../../../riscv64-unknown-elf/lib/rv32im_zicsr/ilp32/libc_nano.a(libc_a-sysopen.o)
 .bss           0x00000000        0x0 /prog/riscv/lib/gcc/riscv64-unknown-elf/14.2.0/../../../../riscv64-unknown-elf/lib/rv32im_zicsr/ilp32/libc_nano.a(libc_a-sysopen.o)
 .text          0x00000000        0x0 /prog/riscv/lib/gcc/riscv64-unknown-elf/14.2.0/../../../../riscv64-unknown-elf/lib/rv32im_zicsr/ilp32/libc_nano.a(libc_a-sysread.o)
 .data          0x00000000        0x0 /prog/riscv/lib/gcc/riscv64-unknown-elf/14.2.0/../../../../riscv64-unknown-elf/lib/rv32im_zicsr/ilp32/libc_nano.a(libc_a-sysread.o)
 .bss           0x00000000        0x0 /prog/riscv/lib/gcc/riscv64-unknown-elf/14.2.0/../../../../riscv64-unknown-elf/lib/rv32im_zicsr/ilp32/libc_nano.a(libc_a-sysread.o)
 .text          0x00000000        0x0 /prog/riscv/lib/gcc/riscv64-unknown-elf/14.2.0/../../../../riscv64-unknown-elf/lib/rv32im_zicsr/ilp32/libc_nano.a(libc_a-sysstat.o)
 .data          0x00000000        0x0 /prog/riscv/lib/gcc/riscv64-unknown-elf/14.2.0/../../../../riscv64-unknown-elf/lib/rv32im_zicsr/ilp32/libc_nano.a(libc_a-sysstat.o)
 .bss           0x00000000        0x0 /prog/riscv/lib/gcc/riscv64-unknown-elf/14.2.0/../../../../riscv64-unknown-elf/lib/rv32im_zicsr/ilp32/libc_nano.a(libc_a-sysstat.o)
 .text          0x00000000        0x0 /prog/riscv/lib/gcc/riscv64-unknown-elf/14.2.0/../../../../riscv64-unknown-elf/lib/rv32im_zicsr/ilp32/libc_nano.a(libc_a-syswrite.o)
 .data          0x00000000        0x0 /prog/riscv/lib/gcc/riscv64-unknown-elf/14.2.0/../../../../riscv64-unknown-elf/lib/rv32im_zicsr/ilp32/libc_nano.a(libc_a-syswrite.o)
 .bss           0x00000000        0x0 /prog/riscv/lib/gcc/riscv64-unknown-elf/14.2.0/../../../../riscv64-unknown-elf/lib/rv32im_zicsr/ilp32/libc_nano.a(libc_a-syswrite.o)
 .data          0x00000000        0x0 /prog/riscv/lib/gcc/riscv64-unknown-elf/14.2.0/../../../../riscv64-unknown-elf/lib/rv32im_zicsr/ilp32/libc_nano.a(libc_a-memmove.o)
 .bss           0x00000000        0x0 /prog/riscv/lib/gcc/riscv64-unknown-elf/14.2.0/../../../../riscv64-unknown-elf/lib/rv32im_zicsr/ilp32/libc_nano.a(libc_a-memmove.o)
 .text          0x00000000        0x0 /prog/riscv/lib/gcc/riscv64-unknown-elf/14.2.0/../../../../riscv64-unknown-elf/lib/rv32im_zicsr/ilp32/libc_nano.a(libc_a-strlen.o)
 .data          0x00000000        0x0 /prog/riscv/lib/gcc/riscv64-unknown-elf/14.2.0/../../../../riscv64-unknown-elf/lib/rv32im_zicsr/ilp32/libc_nano.a(libc_a-strlen.o)
 .bss           0x00000000        0x0 /prog/riscv/lib/gcc/riscv64-unknown-elf/14.2.0/../../../../riscv64-unknown-elf/lib/rv32im_zicsr/ilp32/libc_nano.a(libc_a-strlen.o)
 .text          0x00000000        0x0 /prog/riscv/lib/gcc/riscv64-unknown-elf/14.2.0/../../../../riscv64-unknown-elf/lib/rv32im_zicsr/ilp32/libc_nano.a(libc_a-strcpy.o)
 .data          0x00000000        0x0 /prog/riscv/lib/gcc/riscv64-unknown-elf/14.2.0/../../../../riscv64-unknown-elf/lib/rv32im_zicsr/ilp32/libc_nano.a(libc_a-strcpy.o)
 .bss           0x00000000        0x0 /prog/riscv/lib/gcc/riscv64-unknown-elf/14.2.0/../../../../riscv64-unknown-elf/lib/rv32im_zicsr/ilp32/libc_nano.a(libc_a-strcpy.o)
 .data          0x00000000        0x0 /prog/riscv/lib/gcc/riscv64-unknown-elf/14.2.0/../../../../riscv64-unknown-elf/lib/rv32im_zicsr/ilp32/libc_nano.a(libc_a-strcmp.o)
 .bss           0x00000000        0x0 /prog/riscv/lib/gcc/riscv64-unknown-elf/14.2.0/../../../../riscv64-unknown-elf/lib/rv32im_zicsr/ilp32/libc_nano.a(libc_a-strcmp.o)
 .text          0x00000000        0x0 /prog/riscv/lib/gcc/riscv64-unknown-elf/14.2.0/../../../../riscv64-unknown-elf/lib/rv32im_zicsr/ilp32/libc_nano.a(libc_a-freer.o)
 .data          0x00000000        0x0 /prog/riscv/lib/gcc/riscv64-unknown-elf/14.2.0/../../../../riscv64-unknown-elf/lib/rv32im_zicsr/ilp32/libc_nano.a(libc_a-freer.o)
 .bss           0x00000000        0x0 /prog/riscv/lib/gcc/riscv64-unknown-elf/14.2.0/../../../../riscv64-unknown-elf/lib/rv32im_zicsr/ilp32/libc_nano.a(libc_a-freer.o)
 .text          0x00000000        0x0 /prog/riscv/lib/gcc/riscv64-unknown-elf/14.2.0/../../../../riscv64-unknown-elf/lib/rv32im_zicsr/ilp32/libc_nano.a(libc_a-msizer.o)
 .data          0x00000000        0x0 /prog/riscv/lib/gcc/riscv64-unknown-elf/14.2.0/../../../../riscv64-unknown-elf/lib/rv32im_zicsr/ilp32/libc_nano.a(libc_a-msizer.o)
 .bss           0x00000000        0x0 /prog/riscv/lib/gcc/riscv64-unknown-elf/14.2.0/../../../../riscv64-unknown-elf/lib/rv32im_zicsr/ilp32/libc_nano.a(libc_a-msizer.o)
 .text          0x00000000        0x0 /prog/riscv/lib/gcc/riscv64-unknown-elf/14.2.0/../../../../riscv64-unknown-elf/lib/rv32im_zicsr/ilp32/libc_nano.a(libc_a-nano-svfprintf.o)
 .data          0x00000000        0x0 /prog/riscv/lib/gcc/riscv64-unknown-elf/14.2.0/../../../../riscv64-unknown-elf/lib/rv32im_zicsr/ilp32/libc_nano.a(libc_a-nano-svfprintf.o)
 .bss           0x00000000        0x0 /prog/riscv/lib/gcc/riscv64-unknown-elf/14.2.0/../../../../riscv64-unknown-elf/lib/rv32im_zicsr/ilp32/libc_nano.a(libc_a-nano-svfprintf.o)
 .text.__ssprint_r
                0x00000000      0x1d4 /prog/riscv/lib/gcc/riscv64-unknown-elf/14.2.0/../../../../riscv64-unknown-elf/lib/rv32im_zicsr/ilp32/libc_nano.a(libc_a-nano-svfprintf.o)
 .text          0x00000000        0x0 /prog/riscv/lib/gcc/riscv64-unknown-elf/14.2.0/../../../../riscv64-unknown-elf/lib/rv32im_zicsr/ilp32/libc_nano.a(libc_a-nano-svfscanf.o)
 .data          0x00000000        0x0 /prog/riscv/lib/gcc/riscv64-unknown-elf/14.2.0/../../../../riscv64-unknown-elf/lib/rv32im_zicsr/ilp32/libc_nano.a(libc_a-nano-svfscanf.o)
 .bss           0x00000000        0x0 /prog/riscv/lib/gcc/riscv64-unknown-elf/14.2.0/../../../../riscv64-unknown-elf/lib/rv32im_zicsr/ilp32/libc_nano.a(libc_a-nano-svfscanf.o)
 .text          0x00000000        0x0 /prog/riscv/lib/gcc/riscv64-unknown-elf/14.2.0/../../../../riscv64-unknown-elf/lib/rv32im_zicsr/ilp32/libc_nano.a(libc_a-nano-vfscanf.o)
 .data          0x00000000        0x0 /prog/riscv/lib/gcc/riscv64-unknown-elf/14.2.0/../../../../riscv64-unknown-elf/lib/rv32im_zicsr/ilp32/libc_nano.a(libc_a-nano-vfscanf.o)
 .bss           0x00000000        0x0 /prog/riscv/lib/gcc/riscv64-unknown-elf/14.2.0/../../../../riscv64-unknown-elf/lib/rv32im_zicsr/ilp32/libc_nano.a(libc_a-nano-vfscanf.o)
 .text.vfscanf  0x00000000       0x6c /prog/riscv/lib/gcc/riscv64-unknown-elf/14.2.0/../../../../riscv64-unknown-elf/lib/rv32im_zicsr/ilp32/libc_nano.a(libc_a-nano-vfscanf.o)
 .text.__svfscanf
                0x00000000       0x1c /prog/riscv/lib/gcc/riscv64-unknown-elf/14.2.0/../../../../riscv64-unknown-elf/lib/rv32im_zicsr/ilp32/libc_nano.a(libc_a-nano-vfscanf.o)
 .text          0x00000000        0x0 /prog/riscv/lib/gcc/riscv64-unknown-elf/14.2.0/../../../../riscv64-unknown-elf/lib/rv32im_zicsr/ilp32/libc_nano.a(libc_a-nano-vfscanf_i.o)
 .data          0x00000000        0x0 /prog/riscv/lib/gcc/riscv64-unknown-elf/14.2.0/../../../../riscv64-unknown-elf/lib/rv32im_zicsr/ilp32/libc_nano.a(libc_a-nano-vfscanf_i.o)
 .bss           0x00000000        0x0 /prog/riscv/lib/gcc/riscv64-unknown-elf/14.2.0/../../../../riscv64-unknown-elf/lib/rv32im_zicsr/ilp32/libc_nano.a(libc_a-nano-vfscanf_i.o)
 .text          0x00000000        0x0 /prog/riscv/lib/gcc/riscv64-unknown-elf/14.2.0/../../../../riscv64-unknown-elf/lib/rv32im_zicsr/ilp32/libc_nano.a(libc_a-flags.o)
 .data          0x00000000        0x0 /prog/riscv/lib/gcc/riscv64-unknown-elf/14.2.0/../../../../riscv64-unknown-elf/lib/rv32im_zicsr/ilp32/libc_nano.a(libc_a-flags.o)
 .bss           0x00000000        0x0 /prog/riscv/lib/gcc/riscv64-unknown-elf/14.2.0/../../../../riscv64-unknown-elf/lib/rv32im_zicsr/ilp32/libc_nano.a(libc_a-flags.o)
 .text          0x00000000        0x0 /prog/riscv/lib/gcc/riscv64-unknown-elf/14.2.0/../../../../riscv64-unknown-elf/lib/rv32im_zicsr/ilp32/libc_nano.a(libc_a-makebuf.o)
 .data          0x00000000        0x0 /prog/riscv/lib/gcc/riscv64-unknown-elf/14.2.0/../../../../riscv64-unknown-elf/lib/rv32im_zicsr/ilp32/libc_nano.a(libc_a-makebuf.o)
 .bss           0x00000000        0x0 /prog/riscv/lib/gcc/riscv64-unknown-elf/14.2.0/../../../../riscv64-unknown-elf/lib/rv32im_zicsr/ilp32/libc_nano.a(libc_a-makebuf.o)
 .text          0x00000000        0x0 /prog/riscv/lib/gcc/riscv64-unknown-elf/14.2.0/../../../../riscv64-unknown-elf/lib/rv32im_zicsr/ilp32/libc_nano.a(libc_a-refill.o)
 .data          0x00000000        0x0 /prog/riscv/lib/gcc/riscv64-unknown-elf/14.2.0/../../../../riscv64-unknown-elf/lib/rv32im_zicsr/ilp32/libc_nano.a(libc_a-refill.o)
 .bss           0x00000000        0x0 /prog/riscv/lib/gcc/riscv64-unknown-elf/14.2.0/../../../../riscv64-unknown-elf/lib/rv32im_zicsr/ilp32/libc_nano.a(libc_a-refill.o)
 .text          0x00000000        0x0 /prog/riscv/lib/gcc/riscv64-unknown-elf/14.2.0/../../../../riscv64-unknown-elf/lib/rv32im_zicsr/ilp32/libc_nano.a(libc_a-sccl.o)
 .data          0x00000000        0x0 /prog/riscv/lib/gcc/riscv64-unknown-elf/14.2.0/../../../../riscv64-unknown-elf/lib/rv32im_zicsr/ilp32/libc_nano.a(libc_a-sccl.o)
 .bss           0x00000000        0x0 /prog/riscv/lib/gcc/riscv64-unknown-elf/14.2.0/../../../../riscv64-unknown-elf/lib/rv32im_zicsr/ilp32/libc_nano.a(libc_a-sccl.o)
 .text          0x00000000        0x0 /prog/riscv/lib/gcc/riscv64-unknown-elf/14.2.0/../../../../riscv64-unknown-elf/lib/rv32im_zicsr/ilp32/libc_nano.a(libc_a-ungetc.o)
 .data          0x00000000        0x0 /prog/riscv/lib/gcc/riscv64-unknown-elf/14.2.0/../../../../riscv64-unknown-elf/lib/rv32im_zicsr/ilp32/libc_nano.a(libc_a-ungetc.o)
 .bss           0x00000000        0x0 /prog/riscv/lib/gcc/riscv64-unknown-elf/14.2.0/../../../../riscv64-unknown-elf/lib/rv32im_zicsr/ilp32/libc_nano.a(libc_a-ungetc.o)
 .text.ungetc   0x00000000       0x18 /prog/riscv/lib/gcc/riscv64-unknown-elf/14.2.0/../../../../riscv64-unknown-elf/lib/rv32im_zicsr/ilp32/libc_nano.a(libc_a-ungetc.o)
 .text          0x00000000        0x0 /prog/riscv/lib/gcc/riscv64-unknown-elf/14.2.0/../../../../riscv64-unknown-elf/lib/rv32im_zicsr/ilp32/libc_nano.a(libc_a-fstatr.o)
 .data          0x00000000        0x0 /prog/riscv/lib/gcc/riscv64-unknown-elf/14.2.0/../../../../riscv64-unknown-elf/lib/rv32im_zicsr/ilp32/libc_nano.a(libc_a-fstatr.o)
 .bss           0x00000000        0x0 /prog/riscv/lib/gcc/riscv64-unknown-elf/14.2.0/../../../../riscv64-unknown-elf/lib/rv32im_zicsr/ilp32/libc_nano.a(libc_a-fstatr.o)
 .text          0x00000000        0x0 /prog/riscv/lib/gcc/riscv64-unknown-elf/14.2.0/../../../../riscv64-unknown-elf/lib/rv32im_zicsr/ilp32/libc_nano.a(libc_a-isattyr.o)
 .data          0x00000000        0x0 /prog/riscv/lib/gcc/riscv64-unknown-elf/14.2.0/../../../../riscv64-unknown-elf/lib/rv32im_zicsr/ilp32/libc_nano.a(libc_a-isattyr.o)
 .bss           0x00000000        0x0 /prog/riscv/lib/gcc/riscv64-unknown-elf/14.2.0/../../../../riscv64-unknown-elf/lib/rv32im_zicsr/ilp32/libc_nano.a(libc_a-isattyr.o)
 .text          0x00000000        0x0 /prog/riscv/lib/gcc/riscv64-unknown-elf/14.2.0/../../../../riscv64-unknown-elf/lib/rv32im_zicsr/ilp32/libc_nano.a(libc_a-statr.o)
 .data          0x00000000        0x0 /prog/riscv/lib/gcc/riscv64-unknown-elf/14.2.0/../../../../riscv64-unknown-elf/lib/rv32im_zicsr/ilp32/libc_nano.a(libc_a-statr.o)
 .bss           0x00000000        0x0 /prog/riscv/lib/gcc/riscv64-unknown-elf/14.2.0/../../../../riscv64-unknown-elf/lib/rv32im_zicsr/ilp32/libc_nano.a(libc_a-statr.o)
 .text          0x00000000        0x0 /prog/riscv/lib/gcc/riscv64-unknown-elf/14.2.0/../../../../riscv64-unknown-elf/lib/rv32im_zicsr/ilp32/libc_nano.a(libc_a-strtoul.o)
 .data          0x00000000        0x0 /prog/riscv/lib/gcc/riscv64-unknown-elf/14.2.0/../../../../riscv64-unknown-elf/lib/rv32im_zicsr/ilp32/libc_nano.a(libc_a-strtoul.o)
 .bss           0x00000000        0x0 /prog/riscv/lib/gcc/riscv64-unknown-elf/14.2.0/../../../../riscv64-unknown-elf/lib/rv32im_zicsr/ilp32/libc_nano.a(libc_a-strtoul.o)
 .text.strtoul_l
                0x00000000       0x1c /prog/riscv/lib/gcc/riscv64-unknown-elf/14.2.0/../../../../riscv64-unknown-elf/lib/rv32im_zicsr/ilp32/libc_nano.a(libc_a-strtoul.o)
 .text.strtoul  0x00000000       0x1c /prog/riscv/lib/gcc/riscv64-unknown-elf/14.2.0/../../../../riscv64-unknown-elf/lib/rv32im_zicsr/ilp32/libc_nano.a(libc_a-strtoul.o)
 .data          0x00000000        0x0 /prog/riscv/lib/gcc/riscv64-unknown-elf/14.2.0/rv32im_zicsr/ilp32/libgcc.a(_divdi3.o)
 .bss           0x00000000        0x0 /prog/riscv/lib/gcc/riscv64-unknown-elf/14.2.0/rv32im_zicsr/ilp32/libgcc.a(_divdi3.o)
 .eh_frame      0x00000000       0x28 /prog/riscv/lib/gcc/riscv64-unknown-elf/14.2.0/rv32im_zicsr/ilp32/libgcc.a(_divdi3.o)
 .text          0x00000000        0x0 /prog/riscv/lib/gcc/riscv64-unknown-elf/14.2.0/rv32im_zicsr/ilp32/libgcc.a(_clz.o)
 .data          0x00000000        0x0 /prog/riscv/lib/gcc/riscv64-unknown-elf/14.2.0/rv32im_zicsr/ilp32/libgcc.a(_clz.o)
 .bss           0x00000000        0x0 /prog/riscv/lib/gcc/riscv64-unknown-elf/14.2.0/rv32im_zicsr/ilp32/libgcc.a(_clz.o)
 .text          0x00000000        0x0 /prog/riscv/lib/gcc/riscv64-unknown-elf/14.2.0/../../../../riscv64-unknown-elf/lib/rv32im_zicsr/ilp32/libnosys.a(_exit.o)
 .data          0x00000000        0x0 /prog/riscv/lib/gcc/riscv64-unknown-elf/14.2.0/../../../../riscv64-unknown-elf/lib/rv32im_zicsr/ilp32/libnosys.a(_exit.o)
 .bss           0x00000000        0x0 /prog/riscv/lib/gcc/riscv64-unknown-elf/14.2.0/../../../../riscv64-unknown-elf/lib/rv32im_zicsr/ilp32/libnosys.a(_exit.o)

Memory Configuration

Name             Origin             Length             Attributes
ROM              0x00001000         0x01000000         xr
RAM              0x20000000         0x01000000         xrw
*default*        0x00000000         0xffffffff

Linker script and memory map

LOAD /tmp/ccIUcI9t.o
LOAD /tmp/ccmkV7yr.o
LOAD /tmp/ccpgEVRG.o
LOAD /tmp/ccl4LMkR.o
LOAD /tmp/cc4ktsDS.o
LOAD /tmp/ccgU7jdx.o
LOAD /tmp/ccjHmZfx.o
LOAD /tmp/cccIdlRp.o
LOAD /tmp/ccUtj4vl.o
LOAD /tmp/ccKCxv9t.o
LOAD /tmp/ccEARxVL.o
LOAD /tmp/ccmjtV4p.o
LOAD /tmp/cc0sJo8D.o
LOAD /tmp/ccXiNted.o
LOAD /tmp/ccKIE5CM.o
LOAD /tmp/cc1eAt7H.o
LOAD /tmp/ccfLgswY.o
LOAD /tmp/ccUIbcSk.o
LOAD /tmp/ccvDkeA0.o
LOAD /tmp/ccFIXAxG.o
LOAD /tmp/cclH31lB.o
LOAD /tmp/cc3mgFQP.o
LOAD /tmp/ccqpieuX.o
LOAD /tmp/cczxoUUx.o
LOAD /tmp/cc37mN0l.o
LOAD /tmp/ccbT5xtP.o
LOAD /tmp/cckymBR5.o
LOAD /tmp/ccf8vVS2.o
LOAD /tmp/ccj2wwR0.o
LOAD /tmp/ccvd2S5m.o
LOAD /tmp/cc1JYthu.o
LOAD /tmp/ccmdsAPV.o
LOAD /tmp/cclbtQ5a.o
LOAD /tmp/ccsc2Jgi.o
LOAD /tmp/ccVvVkCG.o
LOAD /tmp/ccPJzS57.o
LOAD /tmp/cc8iKbln.o
LOAD /tmp/ccdfhlmN.o
LOAD /tmp/cc3sh9yo.o
LOAD /tmp/ccvMH7AX.o
LOAD /tmp/cccIYygE.o
LOAD /tmp/ccwKsAYB.o
LOAD /tmp/cc5i2vm6.o
LOAD /tmp/ccf0NvUc.o
LOAD /tmp/cc60vALi.o
LOAD /tmp/ccof1MZ4.o
LOAD /tmp/ccUvJ9IP.o
LOAD /tmp/ccWcMzqM.o
LOAD /tmp/cchLfgF1.o
LOAD /tmp/ccmkZrYQ.o
LOAD /tmp/ccTxiJKs.o
LOAD /tmp/ccGmmR0A.o
LOAD /tmp/ccUXxFQp.o
LOAD /tmp/cckYeBJT.o
LOAD /tmp/ccj4PUoF.o
LOAD /tmp/ccp2R3Ps.o
LOAD /tmp/ccAXYIlt.o
LOAD /tmp/cc7CcWHw.o
LOAD /tmp/cc5O2cYg.o
LOAD /tmp/ccA3sui6.o
LOAD /tmp/ccx6M4gp.o
LOAD /tmp/ccb1royM.o
LOAD /tmp/cchsEYcK.o
LOAD /tmp/cc9bKNsH.o
LOAD /tmp/ccGzfaEn.o
LOAD /tmp/ccucBjw5.o
LOAD /tmp/cco7SOxs.o
LOAD miniwad.o
LOAD /tmp/ccaJXZd9.o
LOAD /prog/riscv/lib/gcc/riscv64-unknown-elf/14.2.0/../../../../riscv64-unknown-elf/lib/rv32im_zicsr/ilp32/libc_nano.a
LOAD /prog/riscv/lib/gcc/riscv64-unknown-elf/14.2.0/rv32im_zicsr/ilp32/libgcc.a
                0x00001000                        PROGMEM_START = 0x1000
                0x01000000                        PROGMEM_LENGTH = 0x1000000
                0x20000000                        DATAMEM_START = 0x20000000
                0x01000000                        DATAMEM_LENGTH = 0x1000000
LOAD /prog/riscv/lib/gcc/riscv64-unknown-elf/14.2.0/rv32im_zicsr/ilp32/libgcc.a
START GROUP
LOAD /prog/riscv/lib/gcc/riscv64-unknown-elf/14.2.0/../../../../riscv64-unknown-elf/lib/rv32im_zicsr/ilp32/libc.a
END GROUP
LOAD /prog/riscv/lib/gcc/riscv64-unknown-elf/14.2.0/rv32im_zicsr/ilp32/libgcc.a
START GROUP
LOAD /prog/riscv/lib/gcc/riscv64-unknown-elf/14.2.0/rv32im_zicsr/ilp32/libgcc.a
LOAD /prog/riscv/lib/gcc/riscv64-unknown-elf/14.2.0/../../../../riscv64-unknown-elf/lib/rv32im_zicsr/ilp32/libc.a
LOAD /prog/riscv/lib/gcc/riscv64-unknown-elf/14.2.0/../../../../riscv64-unknown-elf/lib/rv32im_zicsr/ilp32/libnosys.a
END GROUP
                0x00001000                        . = PROGMEM_START

.text           0x00001000    0x27304
                0x00001000                        __TEXT_BEGIN__ = .
 *(.init)
 .init          0x00001000       0x4c /tmp/ccaJXZd9.o
                0x00001000                _start
 *(.text.init)
 *(.text .text.*)
 .text.AM_activateNewScale
                0x0000104c       0xcc /tmp/ccIUcI9t.o
                0x0000104c                AM_activateNewScale
 .text.AM_saveScaleAndLoc
                0x00001118       0x24 /tmp/ccIUcI9t.o
                0x00001118                AM_saveScaleAndLoc
 .text.AM_restoreScaleAndLoc
                0x0000113c       0x98 /tmp/ccIUcI9t.o
                0x0000113c                AM_restoreScaleAndLoc
 .text.AM_addMark
                0x000011d4       0x50 /tmp/ccIUcI9t.o
                0x000011d4                AM_addMark
 .text.AM_findMinMaxBoundaries
                0x00001224      0x168 /tmp/ccIUcI9t.o
                0x00001224                AM_findMinMaxBoundaries
 .text.AM_changeWindowLoc
                0x0000138c       0xa8 /tmp/ccIUcI9t.o
                0x0000138c                AM_changeWindowLoc
 .text.AM_initVariables
                0x00001434      0x144 /tmp/ccIUcI9t.o
                0x00001434                AM_initVariables
 .text.AM_loadPics
                0x00001578       0x70 /tmp/ccIUcI9t.o
                0x00001578                AM_loadPics
 .text.AM_unloadPics
                0x000015e8       0x74 /tmp/ccIUcI9t.o
                0x000015e8                AM_unloadPics
 .text.AM_clearMarks
                0x0000165c       0x20 /tmp/ccIUcI9t.o
                0x0000165c                AM_clearMarks
 .text.AM_LevelInit
                0x0000167c       0x70 /tmp/ccIUcI9t.o
                0x0000167c                AM_LevelInit
 .text.AM_Stop  0x000016ec       0x30 /tmp/ccIUcI9t.o
                0x000016ec                AM_Stop
 .text.AM_Start
                0x0000171c       0x78 /tmp/ccIUcI9t.o
                0x0000171c                AM_Start
 .text.AM_minOutWindowScale
                0x00001794       0x28 /tmp/ccIUcI9t.o
                0x00001794                AM_minOutWindowScale
 .text.AM_maxOutWindowScale
                0x000017bc       0x28 /tmp/ccIUcI9t.o
                0x000017bc                AM_maxOutWindowScale
 .text.AM_Responder
                0x000017e4      0x308 /tmp/ccIUcI9t.o
                0x000017e4                AM_Responder
 .text.AM_changeWindowScale
                0x00001aec       0x70 /tmp/ccIUcI9t.o
                0x00001aec                AM_changeWindowScale
 .text.AM_doFollowPlayer
                0x00001b5c      0x104 /tmp/ccIUcI9t.o
                0x00001b5c                AM_doFollowPlayer
 .text.AM_Ticker
                0x00001c60       0x68 /tmp/ccIUcI9t.o
                0x00001c60                AM_Ticker
 .text.AM_clearFB
                0x00001cc8       0x18 /tmp/ccIUcI9t.o
                0x00001cc8                AM_clearFB
 .text.AM_clipMline
                0x00001ce0      0x37c /tmp/ccIUcI9t.o
                0x00001ce0                AM_clipMline
 .text.AM_drawFline
                0x0000205c      0x11c /tmp/ccIUcI9t.o
                0x0000205c                AM_drawFline
 .text.AM_drawMline
                0x00002178       0x50 /tmp/ccIUcI9t.o
                0x00002178                AM_drawMline
 .text.AM_drawGrid
                0x000021c8      0x128 /tmp/ccIUcI9t.o
                0x000021c8                AM_drawGrid
 .text.AM_drawWalls
                0x000022f0      0x154 /tmp/ccIUcI9t.o
                0x000022f0                AM_drawWalls
 .text.AM_rotate
                0x00002444       0xb8 /tmp/ccIUcI9t.o
                0x00002444                AM_rotate
 .text.AM_drawLineCharacter
                0x000024fc      0x188 /tmp/ccIUcI9t.o
                0x000024fc                AM_drawLineCharacter
 .text.AM_drawPlayers
                0x00002684      0x128 /tmp/ccIUcI9t.o
                0x00002684                AM_drawPlayers
 .text.AM_drawThings
                0x000027ac       0xb4 /tmp/ccIUcI9t.o
                0x000027ac                AM_drawThings
 .text.AM_drawMarks
                0x00002860      0x110 /tmp/ccIUcI9t.o
                0x00002860                AM_drawMarks
 .text.AM_drawCrosshair
                0x00002970       0x28 /tmp/ccIUcI9t.o
                0x00002970                AM_drawCrosshair
 .text.AM_Drawer
                0x00002998       0x74 /tmp/ccIUcI9t.o
                0x00002998                AM_Drawer
 .text.NetbufferSize
                0x00002a0c       0x14 /tmp/ccpgEVRG.o
                0x00002a0c                NetbufferSize
 .text.ExpandTics
                0x00002a20       0x3c /tmp/ccpgEVRG.o
                0x00002a20                ExpandTics
 .text.HSendPacket
                0x00002a5c       0x94 /tmp/ccpgEVRG.o
                0x00002a5c                HSendPacket
 .text.HGetPacket
                0x00002af0       0xa0 /tmp/ccpgEVRG.o
                0x00002af0                HGetPacket
 .text.GetPackets
                0x00002b90      0x218 /tmp/ccpgEVRG.o
                0x00002b90                GetPackets
 .text.NetUpdate
                0x00002da8      0x23c /tmp/ccpgEVRG.o
                0x00002da8                NetUpdate
 .text.CheckAbort
                0x00002fe4       0xa0 /tmp/ccpgEVRG.o
                0x00002fe4                CheckAbort
 .text.D_ArbitrateNetStart
                0x00003084      0x208 /tmp/ccpgEVRG.o
                0x00003084                D_ArbitrateNetStart
 .text.D_CheckNetGame
                0x0000328c      0x158 /tmp/ccpgEVRG.o
                0x0000328c                D_CheckNetGame
 .text.D_QuitNetGame
                0x000033e4       0xb8 /tmp/ccpgEVRG.o
                0x000033e4                D_QuitNetGame
 .text.TryRunTics
                0x0000349c      0x330 /tmp/ccpgEVRG.o
                0x0000349c                TryRunTics
 .text.F_StartFinale
                0x000037cc      0x198 /tmp/ccjHmZfx.o
                0x000037cc                F_StartFinale
 .text.F_TextWrite
                0x00003964      0x188 /tmp/ccjHmZfx.o
                0x00003964                F_TextWrite
 .text.F_StartCast
                0x00003aec       0x70 /tmp/ccjHmZfx.o
                0x00003aec                F_StartCast
 .text.F_CastTicker
                0x00003b5c      0x400 /tmp/ccjHmZfx.o
                0x00003b5c                F_CastTicker
 .text.F_Ticker
                0x00003f5c      0x118 /tmp/ccjHmZfx.o
                0x00003f5c                F_Ticker
 .text.F_CastResponder
                0x00004074       0xa8 /tmp/ccjHmZfx.o
                0x00004074                F_CastResponder
 .text.F_Responder
                0x0000411c       0x18 /tmp/ccjHmZfx.o
                0x0000411c                F_Responder
 .text.F_CastPrint
                0x00004134      0x144 /tmp/ccjHmZfx.o
                0x00004134                F_CastPrint
 .text.F_CastDrawer
                0x00004278       0xc8 /tmp/ccjHmZfx.o
                0x00004278                F_CastDrawer
 .text.F_DrawPatchCol
                0x00004340       0x70 /tmp/ccjHmZfx.o
                0x00004340                F_DrawPatchCol
 .text.F_BunnyScroll
                0x000043b0      0x198 /tmp/ccjHmZfx.o
                0x000043b0                F_BunnyScroll
 .text.F_Drawer
                0x00004548       0xb4 /tmp/ccjHmZfx.o
                0x00004548                F_Drawer
 .text.wipe_doColorXForm
                0x000045fc       0x5c /tmp/cccIdlRp.o
                0x000045fc                wipe_doColorXForm
 .text.wipe_exitColorXForm
                0x00004658        0x8 /tmp/cccIdlRp.o
                0x00004658                wipe_exitColorXForm
 .text.wipe_doMelt
                0x00004660      0x124 /tmp/cccIdlRp.o
                0x00004660                wipe_doMelt
 .text.wipe_initColorXForm
                0x00004784       0x28 /tmp/cccIdlRp.o
                0x00004784                wipe_initColorXForm
 .text.wipe_exitMelt
                0x000047ac       0x20 /tmp/cccIdlRp.o
                0x000047ac                wipe_exitMelt
 .text.wipe_shittyColMajorXform
                0x000047cc       0xc4 /tmp/cccIdlRp.o
                0x000047cc                wipe_shittyColMajorXform
 .text.wipe_initMelt
                0x00004890       0xfc /tmp/cccIdlRp.o
                0x00004890                wipe_initMelt
 .text.wipe_StartScreen
                0x0000498c       0x28 /tmp/cccIdlRp.o
                0x0000498c                wipe_StartScreen
 .text.wipe_EndScreen
                0x000049b4       0x64 /tmp/cccIdlRp.o
                0x000049b4                wipe_EndScreen
 .text.wipe_ScreenWipe
                0x00004a18       0xfc /tmp/cccIdlRp.o
                0x00004a18                wipe_ScreenWipe
 .text.G_BuildTiccmd
                0x00004b14      0x5e4 /tmp/ccUtj4vl.o
                0x00004b14                G_BuildTiccmd
 .text.G_DoLoadLevel
                0x000050f8      0x184 /tmp/ccUtj4vl.o
                0x000050f8                G_DoLoadLevel
 .text.G_Responder
                0x0000527c      0x234 /tmp/ccUtj4vl.o
                0x0000527c                G_Responder
 .text.G_PlayerFinishLevel
                0x000054b0       0x88 /tmp/ccUtj4vl.o
                0x000054b0                G_PlayerFinishLevel
 .text.G_PlayerReborn
                0x00005538      0x100 /tmp/ccUtj4vl.o
                0x00005538                G_PlayerReborn
 .text.G_CheckSpot
                0x00005638      0x1bc /tmp/ccUtj4vl.o
                0x00005638                G_CheckSpot
 .text.G_DeathMatchSpawnPlayer
                0x000057f4       0xd4 /tmp/ccUtj4vl.o
                0x000057f4                G_DeathMatchSpawnPlayer
 .text.G_DoReborn
                0x000058c8      0x150 /tmp/ccUtj4vl.o
                0x000058c8                G_DoReborn
 .text.G_ScreenShot
                0x00005a18        0xc /tmp/ccUtj4vl.o
                0x00005a18                G_ScreenShot
 .text.G_ExitLevel
                0x00005a24       0x10 /tmp/ccUtj4vl.o
                0x00005a24                G_ExitLevel
 .text.G_SecretExitLevel
                0x00005a34       0x54 /tmp/ccUtj4vl.o
                0x00005a34                G_SecretExitLevel
 .text.G_DoCompleted
                0x00005a88      0x2b4 /tmp/ccUtj4vl.o
                0x00005a88                G_DoCompleted
 .text.G_WorldDone
                0x00005d3c       0x78 /tmp/ccUtj4vl.o
                0x00005d3c                G_WorldDone
 .text.G_DoWorldDone
                0x00005db4       0x38 /tmp/ccUtj4vl.o
                0x00005db4                G_DoWorldDone
 .text.G_LoadGame
                0x00005dec       0x28 /tmp/ccUtj4vl.o
                0x00005dec                G_LoadGame
 .text.G_SaveGame
                0x00005e14       0x28 /tmp/ccUtj4vl.o
                0x00005e14                G_SaveGame
 .text.G_DoSaveGame
                0x00005e3c      0x1b8 /tmp/ccUtj4vl.o
                0x00005e3c                G_DoSaveGame
 .text.G_DeferedInitNew
                0x00005ff4       0x18 /tmp/ccUtj4vl.o
                0x00005ff4                G_DeferedInitNew
 .text.G_InitNew
                0x0000600c      0x248 /tmp/ccUtj4vl.o
                0x0000600c                G_InitNew
 .text.G_DoLoadGame
                0x00006254      0x13c /tmp/ccUtj4vl.o
                0x00006254                G_DoLoadGame
 .text.G_DoNewGame
                0x00006390       0x5c /tmp/ccUtj4vl.o
                0x00006390                G_DoNewGame
 .text.G_DeferedPlayDemo
                0x000063ec       0x10 /tmp/ccUtj4vl.o
                0x000063ec                G_DeferedPlayDemo
 .text.G_DoPlayDemo
                0x000063fc      0x108 /tmp/ccUtj4vl.o
                0x000063fc                G_DoPlayDemo
 .text.G_CheckDemoStatus
                0x00006504      0x130 /tmp/ccUtj4vl.o
                0x00006504                G_CheckDemoStatus
 .text.G_ReadDemoTiccmd
                0x00006634       0x5c /tmp/ccUtj4vl.o
                0x00006634                G_ReadDemoTiccmd
 .text.G_WriteDemoTiccmd
                0x00006690       0xb4 /tmp/ccUtj4vl.o
                0x00006690                G_WriteDemoTiccmd
 .text.G_Ticker
                0x00006744      0x440 /tmp/ccUtj4vl.o
                0x00006744                G_Ticker
 .text.HUlib_initTextLine
                0x00006b84       0x24 /tmp/ccKCxv9t.o
                0x00006b84                HUlib_initTextLine
 .text.HUlib_addCharToTextLine
                0x00006ba8       0x3c /tmp/ccKCxv9t.o
                0x00006ba8                HUlib_addCharToTextLine
 .text.HUlib_delCharFromTextLine
                0x00006be4       0x30 /tmp/ccKCxv9t.o
                0x00006be4                HUlib_delCharFromTextLine
 .text.HUlib_drawTextLine
                0x00006c14      0x178 /tmp/ccKCxv9t.o
                0x00006c14                HUlib_drawTextLine
 .text.HUlib_eraseTextLine
                0x00006d8c       0xf4 /tmp/ccKCxv9t.o
                0x00006d8c                HUlib_eraseTextLine
 .text.HUlib_initSText
                0x00006e80       0x5c /tmp/ccKCxv9t.o
                0x00006e80                HUlib_initSText
 .text.HUlib_addLineToSText
                0x00006edc       0x58 /tmp/ccKCxv9t.o
                0x00006edc                HUlib_addLineToSText
 .text.HUlib_addMessageToSText
                0x00006f34       0x90 /tmp/ccKCxv9t.o
                0x00006f34                HUlib_addMessageToSText
 .text.HUlib_drawSText
                0x00006fc4       0x78 /tmp/ccKCxv9t.o
                0x00006fc4                HUlib_drawSText
 .text.HUlib_eraseSText
                0x0000703c       0x7c /tmp/ccKCxv9t.o
                0x0000703c                HUlib_eraseSText
 .text.HUlib_initIText
                0x000070b8       0x30 /tmp/ccKCxv9t.o
                0x000070b8                HUlib_initIText
 .text.HUlib_delCharFromIText
                0x000070e8       0x14 /tmp/ccKCxv9t.o
                0x000070e8                HUlib_delCharFromIText
 .text.HUlib_resetIText
                0x000070fc       0x18 /tmp/ccKCxv9t.o
                0x000070fc                HUlib_resetIText
 .text.HUlib_keyInIText
                0x00007114       0x48 /tmp/ccKCxv9t.o
                0x00007114                HUlib_keyInIText
 .text.HUlib_drawIText
                0x0000715c       0x18 /tmp/ccKCxv9t.o
                0x0000715c                HUlib_drawIText
 .text.HUlib_eraseIText
                0x00007174       0x50 /tmp/ccKCxv9t.o
                0x00007174                HUlib_eraseIText
 .text.ForeignTranslation
                0x000071c4       0x20 /tmp/ccEARxVL.o
                0x000071c4                ForeignTranslation
 .text.HU_Init  0x000071e4       0x80 /tmp/ccEARxVL.o
                0x000071e4                HU_Init
 .text.HU_Start
                0x00007264      0x19c /tmp/ccEARxVL.o
                0x00007264                HU_Start
 .text.HU_Drawer
                0x00007400       0x4c /tmp/ccEARxVL.o
                0x00007400                HU_Drawer
 .text.HU_Erase
                0x0000744c       0x34 /tmp/ccEARxVL.o
                0x0000744c                HU_Erase
 .text.HU_Ticker
                0x00007480      0x1f8 /tmp/ccEARxVL.o
                0x00007480                HU_Ticker
 .text.HU_queueChatChar
                0x00007678       0x40 /tmp/ccEARxVL.o
                0x00007678                HU_queueChatChar
 .text.HU_dequeueChatChar
                0x000076b8       0x30 /tmp/ccEARxVL.o
                0x000076b8                HU_dequeueChatChar
 .text.HU_Responder
                0x000076e8      0x2d8 /tmp/ccEARxVL.o
                0x000076e8                HU_Responder
 .text.M_CheckParm
                0x000079c0       0x70 /tmp/cc0sJo8D.o
                0x000079c0                M_CheckParm
 .text.M_ClearBox
                0x00007a30       0x1c /tmp/ccXiNted.o
                0x00007a30                M_ClearBox
 .text.M_AddToBox
                0x00007a4c       0x3c /tmp/ccXiNted.o
                0x00007a4c                M_AddToBox
 .text.cht_CheckCheat
                0x00007a88      0x100 /tmp/ccKIE5CM.o
                0x00007a88                cht_CheckCheat
 .text.cht_GetParam
                0x00007b88       0x4c /tmp/ccKIE5CM.o
                0x00007b88                cht_GetParam
 .text.FixedMul
                0x00007bd4       0x18 /tmp/cc1eAt7H.o
                0x00007bd4                FixedMul
 .text.FixedDiv
                0x00007bec       0x84 /tmp/cc1eAt7H.o
                0x00007bec                FixedDiv
 .text.M_ChangeMessages
                0x00007c70       0x50 /tmp/ccfLgswY.o
                0x00007c70                M_ChangeMessages
 .text.M_DrawMainMenu
                0x00007cc0       0x34 /tmp/ccfLgswY.o
                0x00007cc0                M_DrawMainMenu
 .text.M_DrawNewGame
                0x00007cf4       0x58 /tmp/ccfLgswY.o
                0x00007cf4                M_DrawNewGame
 .text.M_DrawEpisode
                0x00007d4c       0x34 /tmp/ccfLgswY.o
                0x00007d4c                M_DrawEpisode
 .text.M_LoadSelect
                0x00007d80       0x54 /tmp/ccfLgswY.o
                0x00007d80                M_LoadSelect
 .text.M_SaveSelect
                0x00007dd4       0x70 /tmp/ccfLgswY.o
                0x00007dd4                M_SaveSelect
 .text.M_SfxVol
                0x00007e44       0x38 /tmp/ccfLgswY.o
                0x00007e44                M_SfxVol
 .text.M_MusicVol
                0x00007e7c       0x38 /tmp/ccfLgswY.o
                0x00007e7c                M_MusicVol
 .text.M_ChangeDetail
                0x00007eb4       0x24 /tmp/ccfLgswY.o
                0x00007eb4                M_ChangeDetail
 .text.M_SizeDisplay
                0x00007ed8       0x54 /tmp/ccfLgswY.o
                0x00007ed8                M_SizeDisplay
 .text.M_ChangeSensitivity
                0x00007f2c       0x38 /tmp/ccfLgswY.o
                0x00007f2c                M_ChangeSensitivity
 .text.M_DrawReadThis1
                0x00007f64       0x70 /tmp/ccfLgswY.o
                0x00007f64                M_DrawReadThis1
 .text.M_DrawReadThis2
                0x00007fd4       0x68 /tmp/ccfLgswY.o
                0x00007fd4                M_DrawReadThis2
 .text.M_QuitResponse
                0x0000803c       0x68 /tmp/ccfLgswY.o
                0x0000803c                M_QuitResponse
 .text.M_QuickLoadResponse
                0x000080a4       0x30 /tmp/ccfLgswY.o
                0x000080a4                M_QuickLoadResponse
 .text.M_VerifyNightmare
                0x000080d4       0x38 /tmp/ccfLgswY.o
                0x000080d4                M_VerifyNightmare
 .text.M_EndGameResponse
                0x0000810c       0x20 /tmp/ccfLgswY.o
                0x0000810c                M_EndGameResponse
 .text.M_ReadSaveStrings
                0x0000812c       0xd8 /tmp/ccfLgswY.o
                0x0000812c                M_ReadSaveStrings
 .text.M_DrawSaveLoadBorder
                0x00008204       0xb0 /tmp/ccfLgswY.o
                0x00008204                M_DrawSaveLoadBorder
 .text.M_DoSave
                0x000082b4       0x4c /tmp/ccfLgswY.o
                0x000082b4                M_DoSave
 .text.M_QuickSaveResponse
                0x00008300       0x30 /tmp/ccfLgswY.o
                0x00008300                M_QuickSaveResponse
 .text.M_DrawThermo
                0x00008330      0x120 /tmp/ccfLgswY.o
                0x00008330                M_DrawThermo
 .text.M_DrawSound
                0x00008450       0x74 /tmp/ccfLgswY.o
                0x00008450                M_DrawSound
 .text.M_DrawOptions
                0x000084c4      0x110 /tmp/ccfLgswY.o
                0x000084c4                M_DrawOptions
 .text.M_StartMessage
                0x000085d4       0x24 /tmp/ccfLgswY.o
                0x000085d4                M_StartMessage
 .text.M_QuickLoad
                0x000085f8       0x8c /tmp/ccfLgswY.o
                0x000085f8                M_QuickLoad
 .text.M_EndGame
                0x00008684       0x48 /tmp/ccfLgswY.o
                0x00008684                M_EndGame
 .text.M_QuitDOOM
                0x000086cc       0x70 /tmp/ccfLgswY.o
                0x000086cc                M_QuitDOOM
 .text.M_ChooseSkill
                0x0000873c       0x48 /tmp/ccfLgswY.o
                0x0000873c                M_ChooseSkill
 .text.M_StringWidth
                0x00008784       0xc8 /tmp/ccfLgswY.o
                0x00008784                M_StringWidth
 .text.M_StringHeight
                0x0000884c       0x80 /tmp/ccfLgswY.o
                0x0000884c                M_StringHeight
 .text.M_WriteText
                0x000088cc       0xf8 /tmp/ccfLgswY.o
                0x000088cc                M_WriteText
 .text.M_DrawLoad
                0x000089c4       0xa8 /tmp/ccfLgswY.o
                0x000089c4                M_DrawLoad
 .text.M_DrawSave
                0x00008a6c      0x114 /tmp/ccfLgswY.o
                0x00008a6c                M_DrawSave
 .text.M_StartControlPanel
                0x00008b80       0x28 /tmp/ccfLgswY.o
                0x00008b80                M_StartControlPanel
 .text.M_Drawer
                0x00008ba8      0x270 /tmp/ccfLgswY.o
                0x00008ba8                M_Drawer
 .text.M_SetupNextMenu
                0x00008e18       0x10 /tmp/ccfLgswY.o
                0x00008e18                M_SetupNextMenu
 .text.M_LoadGame
                0x00008e28       0x3c /tmp/ccfLgswY.o
                0x00008e28                M_LoadGame
 .text.M_SaveGame
                0x00008e64       0x48 /tmp/ccfLgswY.o
                0x00008e64                M_SaveGame
 .text.M_QuickSave
                0x00008eac       0xa8 /tmp/ccfLgswY.o
                0x00008eac                M_QuickSave
 .text.M_Responder
                0x00008f54      0x858 /tmp/ccfLgswY.o
                0x00008f54                M_Responder
 .text.M_Sound  0x000097ac        0xc /tmp/ccfLgswY.o
                0x000097ac                M_Sound
 .text.M_NewGame
                0x000097b8       0x48 /tmp/ccfLgswY.o
                0x000097b8                M_NewGame
 .text.M_Episode
                0x00009800       0x78 /tmp/ccfLgswY.o
                0x00009800                M_Episode
 .text.M_Options
                0x00009878        0xc /tmp/ccfLgswY.o
                0x00009878                M_Options
 .text.M_ReadThis
                0x00009884        0xc /tmp/ccfLgswY.o
                0x00009884                M_ReadThis
 .text.M_ReadThis2
                0x00009890        0xc /tmp/ccfLgswY.o
                0x00009890                M_ReadThis2
 .text.M_FinishReadThis
                0x0000989c        0xc /tmp/ccfLgswY.o
                0x0000989c                M_FinishReadThis
 .text.M_Ticker
                0x000098a8       0x30 /tmp/ccfLgswY.o
                0x000098a8                M_Ticker
 .text.M_Init   0x000098d8       0xf4 /tmp/ccfLgswY.o
                0x000098d8                M_Init
 .text.M_WriteFile
                0x000099cc       0x74 /tmp/ccUIbcSk.o
                0x000099cc                M_WriteFile
 .text.M_ReadFile
                0x00009a40       0xe8 /tmp/ccUIbcSk.o
                0x00009a40                M_ReadFile
 .text.M_SaveDefaults
                0x00009b28       0xfc /tmp/ccUIbcSk.o
                0x00009b28                M_SaveDefaults
 .text.M_LoadDefaults
                0x00009c24      0x204 /tmp/ccUIbcSk.o
                0x00009c24                M_LoadDefaults
 .text.WritePCXfile
                0x00009e28      0x17c /tmp/ccUIbcSk.o
                0x00009e28                WritePCXfile
 .text.M_ScreenShot
                0x00009fa4      0x110 /tmp/ccUIbcSk.o
                0x00009fa4                M_ScreenShot
 .text.P_Random
                0x0000a0b4       0x24 /tmp/ccvDkeA0.o
                0x0000a0b4                P_Random
 .text.M_Random
                0x0000a0d8       0x24 /tmp/ccvDkeA0.o
                0x0000a0d8                M_Random
 .text.M_ClearRandom
                0x0000a0fc        0xc /tmp/ccvDkeA0.o
                0x0000a0fc                M_ClearRandom
 .text.P_AddActiveCeiling
                0x0000a108       0x3c /tmp/cclH31lB.o
                0x0000a108                P_AddActiveCeiling
 .text.P_RemoveActiveCeiling
                0x0000a144       0x68 /tmp/cclH31lB.o
                0x0000a144                P_RemoveActiveCeiling
 .text.T_MoveCeiling
                0x0000a1ac      0x1b0 /tmp/cclH31lB.o
                0x0000a1ac                T_MoveCeiling
 .text.P_ActivateInStasisCeiling
                0x0000a35c       0x48 /tmp/cclH31lB.o
                0x0000a35c                P_ActivateInStasisCeiling
 .text.EV_DoCeiling
                0x0000a3a4      0x18c /tmp/cclH31lB.o
                0x0000a3a4                EV_DoCeiling
 .text.EV_CeilingCrushStop
                0x0000a530       0x4c /tmp/cclH31lB.o
                0x0000a530                EV_CeilingCrushStop
 .text.T_VerticalDoor
                0x0000a57c      0x1d4 /tmp/cc3mgFQP.o
                0x0000a57c                T_VerticalDoor
 .text.EV_DoDoor
                0x0000a750      0x1dc /tmp/cc3mgFQP.o
                0x0000a750                EV_DoDoor
 .text.EV_DoLockedDoor
                0x0000a92c       0xc8 /tmp/cc3mgFQP.o
                0x0000a92c                EV_DoLockedDoor
 .text.EV_VerticalDoor
                0x0000a9f4      0x270 /tmp/cc3mgFQP.o
                0x0000a9f4                EV_VerticalDoor
 .text.P_SpawnDoorCloseIn30
                0x0000ac64       0x70 /tmp/cc3mgFQP.o
                0x0000ac64                P_SpawnDoorCloseIn30
 .text.P_SpawnDoorRaiseIn5Mins
                0x0000acd4       0x98 /tmp/cc3mgFQP.o
                0x0000acd4                P_SpawnDoorRaiseIn5Mins
 .text.PIT_VileCheck
                0x0000ad6c       0xd0 /tmp/ccqpieuX.o
                0x0000ad6c                PIT_VileCheck
 .text.P_RecursiveSound
                0x0000ae3c      0x108 /tmp/ccqpieuX.o
                0x0000ae3c                P_RecursiveSound
 .text.P_NoiseAlert
                0x0000af44       0x20 /tmp/ccqpieuX.o
                0x0000af44                P_NoiseAlert
 .text.P_CheckMeleeRange
                0x0000af64       0x7c /tmp/ccqpieuX.o
                0x0000af64                P_CheckMeleeRange
 .text.P_CheckMissileRange
                0x0000afe0      0x118 /tmp/ccqpieuX.o
                0x0000afe0                P_CheckMissileRange
 .text.P_Move   0x0000b0f8      0x170 /tmp/ccqpieuX.o
                0x0000b0f8                P_Move
 .text.P_TryWalk
                0x0000b268       0x44 /tmp/ccqpieuX.o
                0x0000b268                P_TryWalk
 .text.P_NewChaseDir
                0x0000b2ac      0x244 /tmp/ccqpieuX.o
                0x0000b2ac                P_NewChaseDir
 .text.P_LookForPlayers
                0x0000b4f0      0x184 /tmp/ccqpieuX.o
                0x0000b4f0                P_LookForPlayers
 .text.A_KeenDie
                0x0000b674       0x7c /tmp/ccqpieuX.o
                0x0000b674                A_KeenDie
 .text.A_Look   0x0000b6f0       0xf8 /tmp/ccqpieuX.o
                0x0000b6f0                A_Look
 .text.A_Chase  0x0000b7e8      0x224 /tmp/ccqpieuX.o
                0x0000b7e8                A_Chase
 .text.A_FaceTarget
                0x0000ba0c       0x88 /tmp/ccqpieuX.o
                0x0000ba0c                A_FaceTarget
 .text.A_PosAttack
                0x0000ba94       0xa8 /tmp/ccqpieuX.o
                0x0000ba94                A_PosAttack
 .text.A_SPosAttack
                0x0000bb3c       0xd8 /tmp/ccqpieuX.o
                0x0000bb3c                A_SPosAttack
 .text.A_CPosAttack
                0x0000bc14       0xa4 /tmp/ccqpieuX.o
                0x0000bc14                A_CPosAttack
 .text.A_CPosRefire
                0x0000bcb8       0x68 /tmp/ccqpieuX.o
                0x0000bcb8                A_CPosRefire
 .text.A_SpidRefire
                0x0000bd20       0x68 /tmp/ccqpieuX.o
                0x0000bd20                A_SpidRefire
 .text.A_BspiAttack
                0x0000bd88       0x3c /tmp/ccqpieuX.o
                0x0000bd88                A_BspiAttack
 .text.A_TroopAttack
                0x0000bdc4       0x88 /tmp/ccqpieuX.o
                0x0000bdc4                A_TroopAttack
 .text.A_SargAttack
                0x0000be4c       0x6c /tmp/ccqpieuX.o
                0x0000be4c                A_SargAttack
 .text.A_HeadAttack
                0x0000beb8       0x7c /tmp/ccqpieuX.o
                0x0000beb8                A_HeadAttack
 .text.A_CyberAttack
                0x0000bf34       0x3c /tmp/ccqpieuX.o
                0x0000bf34                A_CyberAttack
 .text.A_BruisAttack
                0x0000bf70       0x80 /tmp/ccqpieuX.o
                0x0000bf70                A_BruisAttack
 .text.A_SkelMissile
                0x0000bff0       0x8c /tmp/ccqpieuX.o
                0x0000bff0                A_SkelMissile
 .text.A_Tracer
                0x0000c07c      0x1ac /tmp/ccqpieuX.o
                0x0000c07c                A_Tracer
 .text.A_SkelWhoosh
                0x0000c228       0x38 /tmp/ccqpieuX.o
                0x0000c228                A_SkelWhoosh
 .text.A_SkelFist
                0x0000c260       0x8c /tmp/ccqpieuX.o
                0x0000c260                A_SkelFist
 .text.A_VileChase
                0x0000c2ec      0x1a8 /tmp/ccqpieuX.o
                0x0000c2ec                A_VileChase
 .text.A_VileStart
                0x0000c494        0x8 /tmp/ccqpieuX.o
                0x0000c494                A_VileStart
 .text.A_Fire   0x0000c49c       0xd0 /tmp/ccqpieuX.o
                0x0000c49c                A_Fire
 .text.A_StartFire
                0x0000c56c       0x2c /tmp/ccqpieuX.o
                0x0000c56c                A_StartFire
 .text.A_FireCrackle
                0x0000c598       0x2c /tmp/ccqpieuX.o
                0x0000c598                A_FireCrackle
 .text.A_VileTarget
                0x0000c5c4       0x58 /tmp/ccqpieuX.o
                0x0000c5c4                A_VileTarget
 .text.A_VileAttack
                0x0000c61c      0x114 /tmp/ccqpieuX.o
                0x0000c61c                A_VileAttack
 .text.A_FatRaise
                0x0000c730       0x2c /tmp/ccqpieuX.o
                0x0000c730                A_FatRaise
 .text.A_FatAttack1
                0x0000c75c       0xb8 /tmp/ccqpieuX.o
                0x0000c75c                A_FatAttack1
 .text.A_FatAttack2
                0x0000c814       0xb4 /tmp/ccqpieuX.o
                0x0000c814                A_FatAttack2
 .text.A_FatAttack3
                0x0000c8c8      0x10c /tmp/ccqpieuX.o
                0x0000c8c8                A_FatAttack3
 .text.A_SkullAttack
                0x0000c9d4       0xe8 /tmp/ccqpieuX.o
                0x0000c9d4                A_SkullAttack
 .text.A_PainShootSkull
                0x0000cabc      0x184 /tmp/ccqpieuX.o
                0x0000cabc                A_PainShootSkull
 .text.A_PainAttack
                0x0000cc40       0x38 /tmp/ccqpieuX.o
                0x0000cc40                A_PainAttack
 .text.A_PainDie
                0x0000cc78       0x64 /tmp/ccqpieuX.o
                0x0000cc78                A_PainDie
 .text.A_Scream
                0x0000ccdc       0x98 /tmp/ccqpieuX.o
                0x0000ccdc                A_Scream
 .text.A_XScream
                0x0000cd74        0x8 /tmp/ccqpieuX.o
                0x0000cd74                A_XScream
 .text.A_Pain   0x0000cd7c       0x14 /tmp/ccqpieuX.o
                0x0000cd7c                A_Pain
 .text.A_Fall   0x0000cd90       0x10 /tmp/ccqpieuX.o
                0x0000cd90                A_Fall
 .text.A_Explode
                0x0000cda0        0xc /tmp/ccqpieuX.o
                0x0000cda0                A_Explode
 .text.A_BossDeath
                0x0000cdac      0x1cc /tmp/ccqpieuX.o
                0x0000cdac                A_BossDeath
 .text.A_Hoof   0x0000cf78       0x2c /tmp/ccqpieuX.o
                0x0000cf78                A_Hoof
 .text.A_Metal  0x0000cfa4       0x2c /tmp/ccqpieuX.o
                0x0000cfa4                A_Metal
 .text.A_BabyMetal
                0x0000cfd0       0x2c /tmp/ccqpieuX.o
                0x0000cfd0                A_BabyMetal
 .text.A_OpenShotgun2
                0x0000cffc        0xc /tmp/ccqpieuX.o
                0x0000cffc                A_OpenShotgun2
 .text.A_LoadShotgun2
                0x0000d008        0xc /tmp/ccqpieuX.o
                0x0000d008                A_LoadShotgun2
 .text.A_CloseShotgun2
                0x0000d014       0x40 /tmp/ccqpieuX.o
                0x0000d014                A_CloseShotgun2
 .text.A_BrainAwake
                0x0000d054       0x78 /tmp/ccqpieuX.o
                0x0000d054                A_BrainAwake
 .text.A_BrainPain
                0x0000d0cc        0xc /tmp/ccqpieuX.o
                0x0000d0cc                A_BrainPain
 .text.A_BrainScream
                0x0000d0d8       0xdc /tmp/ccqpieuX.o
                0x0000d0d8                A_BrainScream
 .text.A_BrainExplode
                0x0000d1b4       0xa8 /tmp/ccqpieuX.o
                0x0000d1b4                A_BrainExplode
 .text.A_BrainDie
                0x0000d25c        0x4 /tmp/ccqpieuX.o
                0x0000d25c                A_BrainDie
 .text.A_BrainSpit
                0x0000d260       0xc0 /tmp/ccqpieuX.o
                0x0000d260                A_BrainSpit
 .text.A_SpawnFly
                0x0000d320      0x124 /tmp/ccqpieuX.o
                0x0000d320                A_SpawnFly
 .text.A_SpawnSound
                0x0000d444       0x2c /tmp/ccqpieuX.o
                0x0000d444                A_SpawnSound
 .text.A_PlayerScream
                0x0000d470       0x20 /tmp/ccqpieuX.o
                0x0000d470                A_PlayerScream
 .text.T_MovePlane
                0x0000d490      0x190 /tmp/cczxoUUx.o
                0x0000d490                T_MovePlane
 .text.T_MoveFloor
                0x0000d620       0xd8 /tmp/cczxoUUx.o
                0x0000d620                T_MoveFloor
 .text.EV_DoFloor
                0x0000d6f8      0x3dc /tmp/cczxoUUx.o
                0x0000d6f8                EV_DoFloor
 .text.EV_BuildStairs
                0x0000dad4      0x1d4 /tmp/cczxoUUx.o
                0x0000dad4                EV_BuildStairs
 .text.P_GiveAmmo
                0x0000dca8      0x138 /tmp/cc37mN0l.o
                0x0000dca8                P_GiveAmmo
 .text.P_GiveWeapon
                0x0000dde0      0x12c /tmp/cc37mN0l.o
                0x0000dde0                P_GiveWeapon
 .text.P_GiveBody
                0x0000df0c       0x38 /tmp/cc37mN0l.o
                0x0000df0c                P_GiveBody
 .text.P_GiveArmor
                0x0000df44       0x28 /tmp/cc37mN0l.o
                0x0000df44                P_GiveArmor
 .text.P_GiveCard
                0x0000df6c       0x24 /tmp/cc37mN0l.o
                0x0000df6c                P_GiveCard
 .text.P_GivePower
                0x0000df90       0xbc /tmp/cc37mN0l.o
                0x0000df90                P_GivePower
 .text.P_TouchSpecialThing
                0x0000e04c      0x64c /tmp/cc37mN0l.o
                0x0000e04c                P_TouchSpecialThing
 .text.P_KillMobj
                0x0000e698      0x210 /tmp/cc37mN0l.o
                0x0000e698                P_KillMobj
 .text.P_DamageMobj
                0x0000e8a8      0x36c /tmp/cc37mN0l.o
                0x0000e8a8                P_DamageMobj
 .text.T_StrobeFlash
                0x0000ec14       0x40 /tmp/ccbT5xtP.o
                0x0000ec14                T_StrobeFlash
 .text.T_Glow   0x0000ec54       0x74 /tmp/ccbT5xtP.o
                0x0000ec54                T_Glow
 .text.T_FireFlicker
                0x0000ecc8       0x74 /tmp/ccbT5xtP.o
                0x0000ecc8                T_FireFlicker
 .text.T_LightFlash
                0x0000ed3c       0x70 /tmp/ccbT5xtP.o
                0x0000ed3c                T_LightFlash
 .text.P_SpawnFireFlicker
                0x0000edac       0x74 /tmp/ccbT5xtP.o
                0x0000edac                P_SpawnFireFlicker
 .text.P_SpawnLightFlash
                0x0000ee20       0x8c /tmp/ccbT5xtP.o
                0x0000ee20                P_SpawnLightFlash
 .text.P_SpawnStrobeFlash
                0x0000eeac       0xb0 /tmp/ccbT5xtP.o
                0x0000eeac                P_SpawnStrobeFlash
 .text.EV_StartLightStrobing
                0x0000ef5c       0x78 /tmp/ccbT5xtP.o
                0x0000ef5c                EV_StartLightStrobing
 .text.EV_TurnTagLightsOff
                0x0000efd4       0xb4 /tmp/ccbT5xtP.o
                0x0000efd4                EV_TurnTagLightsOff
 .text.EV_LightTurnOn
                0x0000f088       0xb8 /tmp/ccbT5xtP.o
                0x0000f088                EV_LightTurnOn
 .text.P_SpawnGlowingLight
                0x0000f140       0x74 /tmp/ccbT5xtP.o
                0x0000f140                P_SpawnGlowingLight
 .text.PIT_StompThing
                0x0000f1b4       0xb4 /tmp/cckymBR5.o
                0x0000f1b4                PIT_StompThing
 .text.PIT_CheckLine
                0x0000f268      0x110 /tmp/cckymBR5.o
                0x0000f268                PIT_CheckLine
 .text.PIT_CheckThing
                0x0000f378      0x1d8 /tmp/cckymBR5.o
                0x0000f378                PIT_CheckThing
 .text.PTR_SlideTraverse
                0x0000f550       0xd4 /tmp/cckymBR5.o
                0x0000f550                PTR_SlideTraverse
 .text.PTR_AimTraverse
                0x0000f624      0x188 /tmp/cckymBR5.o
                0x0000f624                PTR_AimTraverse
 .text.PTR_ShootTraverse
                0x0000f7ac      0x2d8 /tmp/cckymBR5.o
                0x0000f7ac                PTR_ShootTraverse
 .text.PTR_UseTraverse
                0x0000fa84       0x80 /tmp/cckymBR5.o
                0x0000fa84                PTR_UseTraverse
 .text.PIT_RadiusAttack
                0x0000fb04       0xdc /tmp/cckymBR5.o
                0x0000fb04                PIT_RadiusAttack
 .text.P_TeleportMove
                0x0000fbe0      0x1a0 /tmp/cckymBR5.o
                0x0000fbe0                P_TeleportMove
 .text.P_CheckPosition
                0x0000fd80      0x1e4 /tmp/cckymBR5.o
                0x0000fd80                P_CheckPosition
 .text.P_TryMove
                0x0000ff64      0x198 /tmp/cckymBR5.o
                0x0000ff64                P_TryMove
 .text.P_ThingHeightClip
                0x000100fc       0x84 /tmp/cckymBR5.o
                0x000100fc                P_ThingHeightClip
 .text.PIT_ChangeSector
                0x00010180      0x108 /tmp/cckymBR5.o
                0x00010180                PIT_ChangeSector
 .text.P_HitSlideLine
                0x00010288      0x120 /tmp/cckymBR5.o
                0x00010288                P_HitSlideLine
 .text.P_SlideMove
                0x000103a8      0x268 /tmp/cckymBR5.o
                0x000103a8                P_SlideMove
 .text.P_AimLineAttack
                0x00010610       0xb8 /tmp/cckymBR5.o
                0x00010610                P_AimLineAttack
 .text.P_LineAttack
                0x000106c8       0x80 /tmp/cckymBR5.o
                0x000106c8                P_LineAttack
 .text.P_UseLines
                0x00010748       0x58 /tmp/cckymBR5.o
                0x00010748                P_UseLines
 .text.P_RadiusAttack
                0x000107a0       0xc4 /tmp/cckymBR5.o
                0x000107a0                P_RadiusAttack
 .text.P_ChangeSector
                0x00010864       0x88 /tmp/cckymBR5.o
                0x00010864                P_ChangeSector
 .text.P_AproxDistance
                0x000108ec       0x54 /tmp/ccf8vVS2.o
                0x000108ec                P_AproxDistance
 .text.P_PointOnLineSide
                0x00010940       0x9c /tmp/ccf8vVS2.o
                0x00010940                P_PointOnLineSide
 .text.P_BoxOnLineSide
                0x000109dc       0xec /tmp/ccf8vVS2.o
                0x000109dc                P_BoxOnLineSide
 .text.P_PointOnDivlineSide
                0x00010ac8       0xbc /tmp/ccf8vVS2.o
                0x00010ac8                P_PointOnDivlineSide
 .text.P_MakeDivline
                0x00010b84       0x28 /tmp/ccf8vVS2.o
                0x00010b84                P_MakeDivline
 .text.P_InterceptVector
                0x00010bac       0xc4 /tmp/ccf8vVS2.o
                0x00010bac                P_InterceptVector
 .text.PIT_AddLineIntercepts
                0x00010c70      0x124 /tmp/ccf8vVS2.o
                0x00010c70                PIT_AddLineIntercepts
 .text.PIT_AddThingIntercepts
                0x00010d94      0x104 /tmp/ccf8vVS2.o
                0x00010d94                PIT_AddThingIntercepts
 .text.P_LineOpening
                0x00010e98       0x58 /tmp/ccf8vVS2.o
                0x00010e98                P_LineOpening
 .text.P_UnsetThingPosition
                0x00010ef0       0xb4 /tmp/ccf8vVS2.o
                0x00010ef0                P_UnsetThingPosition
 .text.P_SetThingPosition
                0x00010fa4       0xd0 /tmp/ccf8vVS2.o
                0x00010fa4                P_SetThingPosition
 .text.P_BlockLinesIterator
                0x00011074       0xc4 /tmp/ccf8vVS2.o
                0x00011074                P_BlockLinesIterator
 .text.P_BlockThingsIterator
                0x00011138       0x7c /tmp/ccf8vVS2.o
                0x00011138                P_BlockThingsIterator
 .text.P_TraverseIntercepts
                0x000111b4       0xd8 /tmp/ccf8vVS2.o
                0x000111b4                P_TraverseIntercepts
 .text.P_PathTraverse
                0x0001128c      0x2d4 /tmp/ccf8vVS2.o
                0x0001128c                P_PathTraverse
 .text.P_SpawnMobj
                0x00011560      0x174 /tmp/ccj2wwR0.o
                0x00011560                P_SpawnMobj
 .text.P_RemoveMobj
                0x000116d4       0xc4 /tmp/ccj2wwR0.o
                0x000116d4                P_RemoveMobj
 .text.P_SetMobjState
                0x00011798       0xac /tmp/ccj2wwR0.o
                0x00011798                P_SetMobjState
 .text.P_ExplodeMissile
                0x00011844       0x9c /tmp/ccj2wwR0.o
                0x00011844                P_ExplodeMissile
 .text.P_ZMovement
                0x000118e0      0x1dc /tmp/ccj2wwR0.o
                0x000118e0                P_ZMovement
 .text.P_XYMovement
                0x00011abc      0x2e0 /tmp/ccj2wwR0.o
                0x00011abc                P_XYMovement
 .text.P_NightmareRespawn
                0x00011d9c      0x12c /tmp/ccj2wwR0.o
                0x00011d9c                P_NightmareRespawn
 .text.P_MobjThinker
                0x00011ec8      0x104 /tmp/ccj2wwR0.o
                0x00011ec8                P_MobjThinker
 .text.P_RespawnSpecials
                0x00011fcc      0x170 /tmp/ccj2wwR0.o
                0x00011fcc                P_RespawnSpecials
 .text.P_SpawnPlayer
                0x0001213c      0x170 /tmp/ccj2wwR0.o
                0x0001213c                P_SpawnPlayer
 .text.P_SpawnMapThing
                0x000122ac      0x234 /tmp/ccj2wwR0.o
                0x000122ac                P_SpawnMapThing
 .text.P_SpawnPuff
                0x000124e0       0xb4 /tmp/ccj2wwR0.o
                0x000124e0                P_SpawnPuff
 .text.P_SpawnBlood
                0x00012594       0xd0 /tmp/ccj2wwR0.o
                0x00012594                P_SpawnBlood
 .text.P_CheckMissileSpawn
                0x00012664       0x98 /tmp/ccj2wwR0.o
                0x00012664                P_CheckMissileSpawn
 .text.P_SpawnMissile
                0x000126fc      0x14c /tmp/ccj2wwR0.o
                0x000126fc                P_SpawnMissile
 .text.P_SpawnPlayerMissile
                0x00012848      0x14c /tmp/ccj2wwR0.o
                0x00012848                P_SpawnPlayerMissile
 .text.P_ActivateInStasis
                0x00012994       0x48 /tmp/ccvd2S5m.o
                0x00012994                P_ActivateInStasis
 .text.EV_StopPlat
                0x000129dc       0x44 /tmp/ccvd2S5m.o
                0x000129dc                EV_StopPlat
 .text.P_AddActivePlat
                0x00012a20       0x44 /tmp/ccvd2S5m.o
                0x00012a20                P_AddActivePlat
 .text.EV_DoPlat
                0x00012a64      0x24c /tmp/ccvd2S5m.o
                0x00012a64                EV_DoPlat
 .text.P_RemoveActivePlat
                0x00012cb0       0x80 /tmp/ccvd2S5m.o
                0x00012cb0                P_RemoveActivePlat
 .text.T_PlatRaise
                0x00012d30      0x188 /tmp/ccvd2S5m.o
                0x00012d30                T_PlatRaise
 .text.P_SetPsprite
                0x00012eb8       0xe4 /tmp/cc1JYthu.o
                0x00012eb8                P_SetPsprite
 .text.P_BringUpWeapon
                0x00012f9c       0x7c /tmp/cc1JYthu.o
                0x00012f9c                P_BringUpWeapon
 .text.P_CheckAmmo
                0x00013018      0x150 /tmp/cc1JYthu.o
                0x00013018                P_CheckAmmo
 .text.P_FireWeapon
                0x00013168       0x74 /tmp/cc1JYthu.o
                0x00013168                P_FireWeapon
 .text.P_DropWeapon
                0x000131dc       0x24 /tmp/cc1JYthu.o
                0x000131dc                P_DropWeapon
 .text.A_WeaponReady
                0x00013200      0x18c /tmp/cc1JYthu.o
                0x00013200                A_WeaponReady
 .text.A_ReFire
                0x0001338c       0x40 /tmp/cc1JYthu.o
                0x0001338c                A_ReFire
 .text.A_CheckReload
                0x000133cc        0x4 /tmp/cc1JYthu.o
                0x000133cc                A_CheckReload
 .text.A_Lower  0x000133d0       0x50 /tmp/cc1JYthu.o
                0x000133d0                A_Lower
 .text.A_Raise  0x00013420       0x44 /tmp/cc1JYthu.o
                0x00013420                A_Raise
 .text.A_GunFlash
                0x00013464       0x50 /tmp/cc1JYthu.o
                0x00013464                A_GunFlash
 .text.A_Punch  0x000134b4       0xd0 /tmp/cc1JYthu.o
                0x000134b4                A_Punch
 .text.A_Saw    0x00013584      0x154 /tmp/cc1JYthu.o
                0x00013584                A_Saw
 .text.A_FireMissile
                0x000136d8       0x3c /tmp/cc1JYthu.o
                0x000136d8                A_FireMissile
 .text.A_FireBFG
                0x00013714       0x3c /tmp/cc1JYthu.o
                0x00013714                A_FireBFG
 .text.A_FirePlasma
                0x00013750       0x7c /tmp/cc1JYthu.o
                0x00013750                A_FirePlasma
 .text.P_BulletSlope
                0x000137cc       0x84 /tmp/cc1JYthu.o
                0x000137cc                P_BulletSlope
 .text.P_GunShot
                0x00013850       0x84 /tmp/cc1JYthu.o
                0x00013850                P_GunShot
 .text.A_FirePistol
                0x000138d4       0x8c /tmp/cc1JYthu.o
                0x000138d4                A_FirePistol
 .text.A_FireShotgun
                0x00013960       0xa0 /tmp/cc1JYthu.o
                0x00013960                A_FireShotgun
 .text.A_FireShotgun2
                0x00013a00      0x134 /tmp/cc1JYthu.o
                0x00013a00                A_FireShotgun2
 .text.A_FireCGun
                0x00013b34      0x114 /tmp/cc1JYthu.o
                0x00013b34                A_FireCGun
 .text.A_Light0
                0x00013c48        0x8 /tmp/cc1JYthu.o
                0x00013c48                A_Light0
 .text.A_Light1
                0x00013c50        0xc /tmp/cc1JYthu.o
                0x00013c50                A_Light1
 .text.A_Light2
                0x00013c5c        0xc /tmp/cc1JYthu.o
                0x00013c5c                A_Light2
 .text.A_BFGSpray
                0x00013c68       0xe8 /tmp/cc1JYthu.o
                0x00013c68                A_BFGSpray
 .text.A_BFGsound
                0x00013d50        0xc /tmp/cc1JYthu.o
                0x00013d50                A_BFGsound
 .text.P_SetupPsprites
                0x00013d5c       0x14 /tmp/cc1JYthu.o
                0x00013d5c                P_SetupPsprites
 .text.P_MovePsprites
                0x00013d70       0x9c /tmp/cc1JYthu.o
                0x00013d70                P_MovePsprites
 .text.P_ArchivePlayers
                0x00013e0c       0xe4 /tmp/ccmdsAPV.o
                0x00013e0c                P_ArchivePlayers
 .text.P_UnArchivePlayers
                0x00013ef0       0xd4 /tmp/ccmdsAPV.o
                0x00013ef0                P_UnArchivePlayers
 .text.P_ArchiveWorld
                0x00013fc4      0x110 /tmp/ccmdsAPV.o
                0x00013fc4                P_ArchiveWorld
 .text.P_UnArchiveWorld
                0x000140d4      0x128 /tmp/ccmdsAPV.o
                0x000140d4                P_UnArchiveWorld
 .text.P_ArchiveThinkers
                0x000141fc      0x104 /tmp/ccmdsAPV.o
                0x000141fc                P_ArchiveThinkers
 .text.P_UnArchiveThinkers
                0x00014300      0x188 /tmp/ccmdsAPV.o
                0x00014300                P_UnArchiveThinkers
 .text.P_ArchiveSpecials
                0x00014488      0x2e8 /tmp/ccmdsAPV.o
                0x00014488                P_ArchiveSpecials
 .text.P_UnArchiveSpecials
                0x00014770      0x378 /tmp/ccmdsAPV.o
                0x00014770                P_UnArchiveSpecials
 .text.P_LoadVertexes
                0x00014ae8       0x98 /tmp/cclbtQ5a.o
                0x00014ae8                P_LoadVertexes
 .text.P_LoadSegs
                0x00014b80      0x148 /tmp/cclbtQ5a.o
                0x00014b80                P_LoadSegs
 .text.P_LoadSubsectors
                0x00014cc8       0xac /tmp/cclbtQ5a.o
                0x00014cc8                P_LoadSubsectors
 .text.P_LoadSectors
                0x00014d74       0xfc /tmp/cclbtQ5a.o
                0x00014d74                P_LoadSectors
 .text.P_LoadNodes
                0x00014e70      0x110 /tmp/cclbtQ5a.o
                0x00014e70                P_LoadNodes
 .text.P_LoadThings
                0x00014f80       0xd0 /tmp/cclbtQ5a.o
                0x00014f80                P_LoadThings
 .text.P_LoadLineDefs
                0x00015050      0x1e8 /tmp/cclbtQ5a.o
                0x00015050                P_LoadLineDefs
 .text.P_LoadSideDefs
                0x00015238      0x114 /tmp/cclbtQ5a.o
                0x00015238                P_LoadSideDefs
 .text.P_LoadBlockMap
                0x0001534c       0x94 /tmp/cclbtQ5a.o
                0x0001534c                P_LoadBlockMap
 .text.P_GroupLines
                0x000153e0      0x27c /tmp/cclbtQ5a.o
                0x000153e0                P_GroupLines
 .text.P_SetupLevel
                0x0001565c      0x1e4 /tmp/cclbtQ5a.o
                0x0001565c                P_SetupLevel
 .text.P_Init   0x00015840       0x24 /tmp/cclbtQ5a.o
                0x00015840                P_Init
 .text.P_DivlineSide
                0x00015864       0x8c /tmp/ccsc2Jgi.o
                0x00015864                P_DivlineSide
 .text.P_InterceptVector2
                0x000158f0       0xc4 /tmp/ccsc2Jgi.o
                0x000158f0                P_InterceptVector2
 .text.P_CrossSubsector
                0x000159b4      0x200 /tmp/ccsc2Jgi.o
                0x000159b4                P_CrossSubsector
 .text.P_CrossBSPNode
                0x00015bb4      0x140 /tmp/ccsc2Jgi.o
                0x00015bb4                P_CrossBSPNode
 .text.P_CheckSight
                0x00015cf4      0x10c /tmp/ccsc2Jgi.o
                0x00015cf4                P_CheckSight
 .text.P_InitPicAnims
                0x00015e00      0x120 /tmp/ccVvVkCG.o
                0x00015e00                P_InitPicAnims
 .text.getSide  0x00015f20       0x44 /tmp/ccVvVkCG.o
                0x00015f20                getSide
 .text.getSector
                0x00015f64       0x48 /tmp/ccVvVkCG.o
                0x00015f64                getSector
 .text.twoSided
                0x00015fac       0x2c /tmp/ccVvVkCG.o
                0x00015fac                twoSided
 .text.getNextSector
                0x00015fd8       0x28 /tmp/ccVvVkCG.o
                0x00015fd8                getNextSector
 .text.P_FindLowestFloorSurrounding
                0x00016000       0x7c /tmp/ccVvVkCG.o
                0x00016000                P_FindLowestFloorSurrounding
 .text.P_FindHighestFloorSurrounding
                0x0001607c       0x7c /tmp/ccVvVkCG.o
                0x0001607c                P_FindHighestFloorSurrounding
 .text.P_FindNextHighestFloor
                0x000160f8       0xf0 /tmp/ccVvVkCG.o
                0x000160f8                P_FindNextHighestFloor
 .text.P_FindLowestCeilingSurrounding
                0x000161e8       0x80 /tmp/ccVvVkCG.o
                0x000161e8                P_FindLowestCeilingSurrounding
 .text.P_FindHighestCeilingSurrounding
                0x00016268       0x7c /tmp/ccVvVkCG.o
                0x00016268                P_FindHighestCeilingSurrounding
 .text.P_FindSectorFromLineTag
                0x000162e4       0x3c /tmp/ccVvVkCG.o
                0x000162e4                P_FindSectorFromLineTag
 .text.P_FindMinSurroundingLight
                0x00016320       0x7c /tmp/ccVvVkCG.o
                0x00016320                P_FindMinSurroundingLight
 .text.P_CrossSpecialLine
                0x0001639c      0x3e0 /tmp/ccVvVkCG.o
                0x0001639c                P_CrossSpecialLine
 .text.P_ShootSpecialLine
                0x0001677c       0x94 /tmp/ccVvVkCG.o
                0x0001677c                P_ShootSpecialLine
 .text.P_PlayerInSpecialSector
                0x00016810      0x158 /tmp/ccVvVkCG.o
                0x00016810                P_PlayerInSpecialSector
 .text.P_UpdateSpecials
                0x00016968      0x1e4 /tmp/ccVvVkCG.o
                0x00016968                P_UpdateSpecials
 .text.EV_DoDonut
                0x00016b4c      0x1a0 /tmp/ccVvVkCG.o
                0x00016b4c                EV_DoDonut
 .text.P_SpawnSpecials
                0x00016cec      0x250 /tmp/ccVvVkCG.o
                0x00016cec                P_SpawnSpecials
 .text.P_InitSwitchList
                0x00016f3c       0xdc /tmp/ccPJzS57.o
                0x00016f3c                P_InitSwitchList
 .text.P_StartButton
                0x00017018       0x84 /tmp/ccPJzS57.o
                0x00017018                P_StartButton
 .text.P_ChangeSwitchTexture
                0x0001709c      0x1c4 /tmp/ccPJzS57.o
                0x0001709c                P_ChangeSwitchTexture
 .text.P_UseSpecialLine
                0x00017260      0x338 /tmp/ccPJzS57.o
                0x00017260                P_UseSpecialLine
 .text.EV_Teleport
                0x00017598      0x1c0 /tmp/cc8iKbln.o
                0x00017598                EV_Teleport
 .text.P_InitThinkers
                0x00017758       0x14 /tmp/ccdfhlmN.o
                0x00017758                P_InitThinkers
 .text.P_AddThinker
                0x0001776c       0x20 /tmp/ccdfhlmN.o
                0x0001776c                P_AddThinker
 .text.P_RemoveThinker
                0x0001778c        0xc /tmp/ccdfhlmN.o
                0x0001778c                P_RemoveThinker
 .text.P_RunThinkers
                0x00017798       0x7c /tmp/ccdfhlmN.o
                0x00017798                P_RunThinkers
 .text.P_Ticker
                0x00017814       0xb4 /tmp/ccdfhlmN.o
                0x00017814                P_Ticker
 .text.P_Thrust
                0x000178c8       0x88 /tmp/cc3sh9yo.o
                0x000178c8                P_Thrust
 .text.P_CalcHeight
                0x00017950      0x160 /tmp/cc3sh9yo.o
                0x00017950                P_CalcHeight
 .text.P_MovePlayer
                0x00017ab0       0xc8 /tmp/cc3sh9yo.o
                0x00017ab0                P_MovePlayer
 .text.P_DeathThink
                0x00017b78       0xf0 /tmp/cc3sh9yo.o
                0x00017b78                P_DeathThink
 .text.P_PlayerThink
                0x00017c68      0x270 /tmp/cc3sh9yo.o
                0x00017c68                P_PlayerThink
 .text.R_ClearDrawSegs
                0x00017ed8       0x10 /tmp/ccvMH7AX.o
                0x00017ed8                R_ClearDrawSegs
 .text.R_ClipSolidWallSegment
                0x00017ee8      0x144 /tmp/ccvMH7AX.o
                0x00017ee8                R_ClipSolidWallSegment
 .text.R_ClipPassWallSegment
                0x0001802c       0x94 /tmp/ccvMH7AX.o
                0x0001802c                R_ClipPassWallSegment
 .text.R_ClearClipSegs
                0x000180c0       0x40 /tmp/ccvMH7AX.o
                0x000180c0                R_ClearClipSegs
 .text.R_AddLine
                0x00018100      0x170 /tmp/ccvMH7AX.o
                0x00018100                R_AddLine
 .text.R_CheckBBox
                0x00018270      0x1ac /tmp/ccvMH7AX.o
                0x00018270                R_CheckBBox
 .text.R_Subsector
                0x0001841c       0xdc /tmp/ccvMH7AX.o
                0x0001841c                R_Subsector
 .text.R_RenderBSPNode
                0x000184f8       0xe4 /tmp/ccvMH7AX.o
                0x000184f8                R_RenderBSPNode
 .text.R_DrawColumnInCache
                0x000185dc       0x98 /tmp/cccIYygE.o
                0x000185dc                R_DrawColumnInCache
 .text.R_GenerateComposite
                0x00018674      0x170 /tmp/cccIYygE.o
                0x00018674                R_GenerateComposite
 .text.R_GenerateLookup
                0x000187e4      0x214 /tmp/cccIYygE.o
                0x000187e4                R_GenerateLookup
 .text.R_GetColumn
                0x000189f8       0xa8 /tmp/cccIYygE.o
                0x000189f8                R_GetColumn
 .text.R_InitTextures
                0x00018aa0      0x508 /tmp/cccIYygE.o
                0x00018aa0                R_InitTextures
 .text.R_InitFlats
                0x00018fa8       0x8c /tmp/cccIYygE.o
                0x00018fa8                R_InitFlats
 .text.R_InitSpriteLumps
                0x00019034      0x140 /tmp/cccIYygE.o
                0x00019034                R_InitSpriteLumps
 .text.R_InitColormaps
                0x00019174       0x50 /tmp/cccIYygE.o
                0x00019174                R_InitColormaps
 .text.R_InitData
                0x000191c4       0x50 /tmp/cccIYygE.o
                0x000191c4                R_InitData
 .text.R_FlatNumForName
                0x00019214       0x5c /tmp/cccIYygE.o
                0x00019214                R_FlatNumForName
 .text.R_CheckTextureNumForName
                0x00019270       0x84 /tmp/cccIYygE.o
                0x00019270                R_CheckTextureNumForName
 .text.R_TextureNumForName
                0x000192f4       0x44 /tmp/cccIYygE.o
                0x000192f4                R_TextureNumForName
 .text.R_PrecacheLevel
                0x00019338      0x334 /tmp/cccIYygE.o
                0x00019338                R_PrecacheLevel
 .text.R_DrawColumn
                0x0001966c       0x90 /tmp/ccwKsAYB.o
                0x0001966c                R_DrawColumn
 .text.R_DrawColumnLow
                0x000196fc       0x9c /tmp/ccwKsAYB.o
                0x000196fc                R_DrawColumnLow
 .text.R_DrawFuzzColumn
                0x00019798       0xb8 /tmp/ccwKsAYB.o
                0x00019798                R_DrawFuzzColumn
 .text.R_DrawTranslatedColumn
                0x00019850       0x98 /tmp/ccwKsAYB.o
                0x00019850                R_DrawTranslatedColumn
 .text.R_InitTranslationTables
                0x000198e8       0xb8 /tmp/ccwKsAYB.o
                0x000198e8                R_InitTranslationTables
 .text.R_DrawSpan
                0x000199a0       0x9c /tmp/ccwKsAYB.o
                0x000199a0                R_DrawSpan
 .text.R_DrawSpanLow
                0x00019a3c       0xc8 /tmp/ccwKsAYB.o
                0x00019a3c                R_DrawSpanLow
 .text.R_InitBuffer
                0x00019b04       0x2c /tmp/ccwKsAYB.o
                0x00019b04                R_InitBuffer
 .text.R_FillBackScreen
                0x00019b30      0x2e4 /tmp/ccwKsAYB.o
                0x00019b30                R_FillBackScreen
 .text.R_VideoErase
                0x00019e14       0x20 /tmp/ccwKsAYB.o
                0x00019e14                R_VideoErase
 .text.R_DrawViewBorder
                0x00019e34       0xf0 /tmp/ccwKsAYB.o
                0x00019e34                R_DrawViewBorder
 .text.R_PointOnSide
                0x00019f24       0xb8 /tmp/cc5i2vm6.o
                0x00019f24                R_PointOnSide
 .text.R_PointOnSegSide
                0x00019fdc       0xc0 /tmp/cc5i2vm6.o
                0x00019fdc                R_PointOnSegSide
 .text.R_PointToAngle
                0x0001a09c      0x17c /tmp/cc5i2vm6.o
                0x0001a09c                R_PointToAngle
 .text.R_PointToAngle2
                0x0001a218       0x14 /tmp/cc5i2vm6.o
                0x0001a218                R_PointToAngle2
 .text.R_PointToDist
                0x0001a22c       0x9c /tmp/cc5i2vm6.o
                0x0001a22c                R_PointToDist
 .text.R_ScaleFromGlobalAngle
                0x0001a2c8       0xb0 /tmp/cc5i2vm6.o
                0x0001a2c8                R_ScaleFromGlobalAngle
 .text.R_InitTextureMapping
                0x0001a378      0x1b8 /tmp/cc5i2vm6.o
                0x0001a378                R_InitTextureMapping
 .text.R_InitLightTables
                0x0001a530       0xe4 /tmp/cc5i2vm6.o
                0x0001a530                R_InitLightTables
 .text.R_SetViewSize
                0x0001a614       0x14 /tmp/cc5i2vm6.o
                0x0001a614                R_SetViewSize
 .text.R_ExecuteSetViewSize
                0x0001a628      0x288 /tmp/cc5i2vm6.o
                0x0001a628                R_ExecuteSetViewSize
 .text.R_Init   0x0001a8b0       0x98 /tmp/cc5i2vm6.o
                0x0001a8b0                R_Init
 .text.R_PointInSubsector
                0x0001a948       0xac /tmp/cc5i2vm6.o
                0x0001a948                R_PointInSubsector
 .text.R_SetupFrame
                0x0001a9f4       0xc4 /tmp/cc5i2vm6.o
                0x0001a9f4                R_SetupFrame
 .text.R_RenderPlayerView
                0x0001aab8       0x48 /tmp/cc5i2vm6.o
                0x0001aab8                R_RenderPlayerView
 .text.R_InitPlanes
                0x0001ab00        0x4 /tmp/ccf0NvUc.o
                0x0001ab00                R_InitPlanes
 .text.R_MapPlane
                0x0001ab04      0x1d0 /tmp/ccf0NvUc.o
                0x0001ab04                R_MapPlane
 .text.R_ClearPlanes
                0x0001acd4       0xd8 /tmp/ccf0NvUc.o
                0x0001acd4                R_ClearPlanes
 .text.R_FindPlane
                0x0001adac       0xe4 /tmp/ccf0NvUc.o
                0x0001adac                R_FindPlane
 .text.R_CheckPlane
                0x0001ae90       0xb0 /tmp/ccf0NvUc.o
                0x0001ae90                R_CheckPlane
 .text.R_MakeSpans
                0x0001af40      0x110 /tmp/ccf0NvUc.o
                0x0001af40                R_MakeSpans
 .text.R_DrawPlanes
                0x0001b050      0x210 /tmp/ccf0NvUc.o
                0x0001b050                R_DrawPlanes
 .text.R_RenderMaskedSegRange
                0x0001b260      0x298 /tmp/cc60vALi.o
                0x0001b260                R_RenderMaskedSegRange
 .text.R_RenderSegLoop
                0x0001b4f8      0x394 /tmp/cc60vALi.o
                0x0001b4f8                R_RenderSegLoop
 .text.R_StoreWallRange
                0x0001b88c      0x85c /tmp/cc60vALi.o
                0x0001b88c                R_StoreWallRange
 .text.R_InitSkyMap
                0x0001c0e8        0xc /tmp/ccof1MZ4.o
                0x0001c0e8                R_InitSkyMap
 .text.R_InstallSpriteLump
                0x0001c0f4      0x1d0 /tmp/ccUvJ9IP.o
                0x0001c0f4                R_InstallSpriteLump
 .text.R_InitSpriteDefs
                0x0001c2c4      0x290 /tmp/ccUvJ9IP.o
                0x0001c2c4                R_InitSpriteDefs
 .text.R_InitSprites
                0x0001c554       0x20 /tmp/ccUvJ9IP.o
                0x0001c554                R_InitSprites
 .text.R_ClearSprites
                0x0001c574       0x10 /tmp/ccUvJ9IP.o
                0x0001c574                R_ClearSprites
 .text.R_NewVisSprite
                0x0001c584       0x28 /tmp/ccUvJ9IP.o
                0x0001c584                R_NewVisSprite
 .text.R_DrawMaskedColumn
                0x0001c5ac      0x118 /tmp/ccUvJ9IP.o
                0x0001c5ac                R_DrawMaskedColumn
 .text.R_DrawVisSprite
                0x0001c6c4      0x11c /tmp/ccUvJ9IP.o
                0x0001c6c4                R_DrawVisSprite
 .text.R_ProjectSprite
                0x0001c7e0      0x2e4 /tmp/ccUvJ9IP.o
                0x0001c7e0                R_ProjectSprite
 .text.R_AddSprites
                0x0001cac4       0x94 /tmp/ccUvJ9IP.o
                0x0001cac4                R_AddSprites
 .text.R_DrawPSprite
                0x0001cb58      0x1e8 /tmp/ccUvJ9IP.o
                0x0001cb58                R_DrawPSprite
 .text.R_DrawPlayerSprites
                0x0001cd40       0xbc /tmp/ccUvJ9IP.o
                0x0001cd40                R_DrawPlayerSprites
 .text.R_SortVisSprites
                0x0001cdfc       0xe8 /tmp/ccUvJ9IP.o
                0x0001cdfc                R_SortVisSprites
 .text.R_DrawSprite
                0x0001cee4      0x294 /tmp/ccUvJ9IP.o
                0x0001cee4                R_DrawSprite
 .text.R_DrawMasked
                0x0001d178       0xac /tmp/ccUvJ9IP.o
                0x0001d178                R_DrawMasked
 .text.STlib_init
                0x0001d224       0x28 /tmp/cchLfgF1.o
                0x0001d224                STlib_init
 .text.STlib_initNum
                0x0001d24c       0x20 /tmp/cchLfgF1.o
                0x0001d24c                STlib_initNum
 .text.STlib_drawNum
                0x0001d26c      0x198 /tmp/cchLfgF1.o
                0x0001d26c                STlib_drawNum
 .text.STlib_updateNum
                0x0001d404       0x14 /tmp/cchLfgF1.o
                0x0001d404                STlib_updateNum
 .text.STlib_initPercent
                0x0001d418       0x28 /tmp/cchLfgF1.o
                0x0001d418                STlib_initPercent
 .text.STlib_updatePercent
                0x0001d440       0x58 /tmp/cchLfgF1.o
                0x0001d440                STlib_updatePercent
 .text.STlib_initMultIcon
                0x0001d498       0x20 /tmp/cchLfgF1.o
                0x0001d498                STlib_initMultIcon
 .text.STlib_updateMultIcon
                0x0001d4b8       0xfc /tmp/cchLfgF1.o
                0x0001d4b8                STlib_updateMultIcon
 .text.STlib_initBinIcon
                0x0001d5b4       0x1c /tmp/cchLfgF1.o
                0x0001d5b4                STlib_initBinIcon
 .text.STlib_updateBinIcon
                0x0001d5d0       0xe8 /tmp/cchLfgF1.o
                0x0001d5d0                STlib_updateBinIcon
 .text.ST_refreshBackground
                0x0001d6b8       0x70 /tmp/ccmkZrYQ.o
                0x0001d6b8                ST_refreshBackground
 .text.ST_Responder
                0x0001d728      0x470 /tmp/ccmkZrYQ.o
                0x0001d728                ST_Responder
 .text.ST_calcPainOffset
                0x0001db98       0x48 /tmp/ccmkZrYQ.o
                0x0001db98                ST_calcPainOffset
 .text.ST_updateFaceWidget
                0x0001dbe0      0x2c0 /tmp/ccmkZrYQ.o
                0x0001dbe0                ST_updateFaceWidget
 .text.ST_updateWidgets
                0x0001dea0      0x138 /tmp/ccmkZrYQ.o
                0x0001dea0                ST_updateWidgets
 .text.ST_Ticker
                0x0001dfd8       0x38 /tmp/ccmkZrYQ.o
                0x0001dfd8                ST_Ticker
 .text.ST_doPaletteStuff
                0x0001e010       0xd4 /tmp/ccmkZrYQ.o
                0x0001e010                ST_doPaletteStuff
 .text.ST_drawWidgets
                0x0001e0e4      0x14c /tmp/ccmkZrYQ.o
                0x0001e0e4                ST_drawWidgets
 .text.ST_doRefresh
                0x0001e230       0x20 /tmp/ccmkZrYQ.o
                0x0001e230                ST_doRefresh
 .text.ST_diffDraw
                0x0001e250        0x8 /tmp/ccmkZrYQ.o
                0x0001e250                ST_diffDraw
 .text.ST_Drawer
                0x0001e258       0x5c /tmp/ccmkZrYQ.o
                0x0001e258                ST_Drawer
 .text.ST_loadGraphics
                0x0001e2b4      0x308 /tmp/ccmkZrYQ.o
                0x0001e2b4                ST_loadGraphics
 .text.ST_loadData
                0x0001e5bc       0x24 /tmp/ccmkZrYQ.o
                0x0001e5bc                ST_loadData
 .text.ST_initData
                0x0001e5e0       0x84 /tmp/ccmkZrYQ.o
                0x0001e5e0                ST_initData
 .text.ST_createWidgets
                0x0001e664      0x39c /tmp/ccmkZrYQ.o
                0x0001e664                ST_createWidgets
 .text.ST_Stop  0x0001ea00       0x3c /tmp/ccmkZrYQ.o
                0x0001ea00                ST_Stop
 .text.ST_Start
                0x0001ea3c       0x34 /tmp/ccmkZrYQ.o
                0x0001ea3c                ST_Start
 .text.ST_Init  0x0001ea70       0x34 /tmp/ccmkZrYQ.o
                0x0001ea70                ST_Init
 .text.SlopeDiv
                0x0001eaa4       0x28 /tmp/ccTxiJKs.o
                0x0001eaa4                SlopeDiv
 .text.V_MarkRect
                0x0001eacc       0x74 /tmp/ccGmmR0A.o
                0x0001eacc                V_MarkRect
 .text.V_CopyRect
                0x0001eb40       0xe8 /tmp/ccGmmR0A.o
                0x0001eb40                V_CopyRect
 .text.V_DrawPatch
                0x0001ec28       0xfc /tmp/ccGmmR0A.o
                0x0001ec28                V_DrawPatch
 .text.V_DrawPatchFlipped
                0x0001ed24      0x100 /tmp/ccGmmR0A.o
                0x0001ed24                V_DrawPatchFlipped
 .text.V_DrawPatchDirect
                0x0001ee24        0x4 /tmp/ccGmmR0A.o
                0x0001ee24                V_DrawPatchDirect
 .text.V_DrawBlock
                0x0001ee28       0xb0 /tmp/ccGmmR0A.o
                0x0001ee28                V_DrawBlock
 .text.V_Init   0x0001eed8       0x40 /tmp/ccGmmR0A.o
                0x0001eed8                V_Init
 .text.WI_slamBackground
                0x0001ef18       0x40 /tmp/ccUXxFQp.o
                0x0001ef18                WI_slamBackground
 .text.WI_drawLF
                0x0001ef58       0xb0 /tmp/ccUXxFQp.o
                0x0001ef58                WI_drawLF
 .text.WI_drawEL
                0x0001f008       0x88 /tmp/ccUXxFQp.o
                0x0001f008                WI_drawEL
 .text.WI_drawOnLnode
                0x0001f090       0xac /tmp/ccUXxFQp.o
                0x0001f090                WI_drawOnLnode
 .text.WI_initAnimatedBack
                0x0001f13c      0x130 /tmp/ccUXxFQp.o
                0x0001f13c                WI_initAnimatedBack
 .text.WI_updateAnimatedBack
                0x0001f26c      0x188 /tmp/ccUXxFQp.o
                0x0001f26c                WI_updateAnimatedBack
 .text.WI_drawNum
                0x0001f3f4      0x130 /tmp/ccUXxFQp.o
                0x0001f3f4                WI_drawNum
 .text.WI_drawPercent
                0x0001f524       0x5c /tmp/ccUXxFQp.o
                0x0001f524                WI_drawPercent
 .text.WI_drawTime
                0x0001f580       0xf8 /tmp/ccUXxFQp.o
                0x0001f580                WI_drawTime
 .text.WI_initNoState
                0x0001f678       0x18 /tmp/ccUXxFQp.o
                0x0001f678                WI_initNoState
 .text.WI_initShowNextLoc
                0x0001f690       0x18 /tmp/ccUXxFQp.o
                0x0001f690                WI_initShowNextLoc
 .text.WI_updateShowNextLoc
                0x0001f6a8       0x48 /tmp/ccUXxFQp.o
                0x0001f6a8                WI_updateShowNextLoc
 .text.WI_drawShowNextLoc
                0x0001f6f0       0xf8 /tmp/ccUXxFQp.o
                0x0001f6f0                WI_drawShowNextLoc
 .text.WI_drawNoState
                0x0001f7e8        0xc /tmp/ccUXxFQp.o
                0x0001f7e8                WI_drawNoState
 .text.WI_fragSum
                0x0001f7f4       0x64 /tmp/ccUXxFQp.o
                0x0001f7f4                WI_fragSum
 .text.WI_initDeathmatchStats
                0x0001f858       0x80 /tmp/ccUXxFQp.o
                0x0001f858                WI_initDeathmatchStats
 .text.WI_updateDeathmatchStats
                0x0001f8d8      0x2f4 /tmp/ccUXxFQp.o
                0x0001f8d8                WI_updateDeathmatchStats
 .text.WI_drawDeathmatchStats
                0x0001fbcc      0x230 /tmp/ccUXxFQp.o
                0x0001fbcc                WI_drawDeathmatchStats
 .text.WI_initNetgameStats
                0x0001fdfc      0x108 /tmp/ccUXxFQp.o
                0x0001fdfc                WI_initNetgameStats
 .text.WI_updateNetgameStats
                0x0001ff04      0x4ac /tmp/ccUXxFQp.o
                0x0001ff04                WI_updateNetgameStats
 .text.WI_drawNetgameStats
                0x000203b0      0x2c8 /tmp/ccUXxFQp.o
                0x000203b0                WI_drawNetgameStats
 .text.WI_initStats
                0x00020678       0x40 /tmp/ccUXxFQp.o
                0x00020678                WI_initStats
 .text.WI_updateStats
                0x000206b8      0x330 /tmp/ccUXxFQp.o
                0x000206b8                WI_updateStats
 .text.WI_drawStats
                0x000209e8      0x130 /tmp/ccUXxFQp.o
                0x000209e8                WI_drawStats
 .text.WI_checkForAccelerate
                0x00020b18       0x7c /tmp/ccUXxFQp.o
                0x00020b18                WI_checkForAccelerate
 .text.WI_loadData
                0x00020b94      0x4ec /tmp/ccUXxFQp.o
                0x00020b94                WI_loadData
 .text.WI_unloadData
                0x00021080      0x680 /tmp/ccUXxFQp.o
                0x00021080                WI_unloadData
 .text.WI_updateNoState
                0x00021700       0x38 /tmp/ccUXxFQp.o
                0x00021700                WI_updateNoState
 .text.WI_Ticker
                0x00021738       0xa8 /tmp/ccUXxFQp.o
                0x00021738                WI_Ticker
 .text.WI_Drawer
                0x000217e0       0x40 /tmp/ccUXxFQp.o
                0x000217e0                WI_Drawer
 .text.WI_initVariables
                0x00021820       0x74 /tmp/ccUXxFQp.o
                0x00021820                WI_initVariables
 .text.WI_Start
                0x00021894       0x44 /tmp/ccUXxFQp.o
                0x00021894                WI_Start
 .text.strupr   0x000218d8       0x3c /tmp/cckYeBJT.o
                0x000218d8                strupr
 .text.filelength
                0x00021914       0x34 /tmp/cckYeBJT.o
                0x00021914                filelength
 .text.ExtractFileBase
                0x00021948      0x118 /tmp/cckYeBJT.o
                0x00021948                ExtractFileBase
 .text.W_AddFile
                0x00021a60      0x230 /tmp/cckYeBJT.o
                0x00021a60                W_AddFile
 .text.W_Reload
                0x00021c90      0x130 /tmp/cckYeBJT.o
                0x00021c90                W_Reload
 .text.W_InitMultipleFiles
                0x00021dc0       0x90 /tmp/cckYeBJT.o
                0x00021dc0                W_InitMultipleFiles
 .text.W_CheckNumForName
                0x00021e50       0x84 /tmp/cckYeBJT.o
                0x00021e50                W_CheckNumForName
 .text.W_GetNumForName
                0x00021ed4       0x44 /tmp/cckYeBJT.o
                0x00021ed4                W_GetNumForName
 .text.W_LumpLength
                0x00021f18       0x4c /tmp/cckYeBJT.o
                0x00021f18                W_LumpLength
 .text.W_ReadLump
                0x00021f64      0x114 /tmp/cckYeBJT.o
                0x00021f64                W_ReadLump
 .text.W_CacheLumpNum
                0x00022078       0xd8 /tmp/cckYeBJT.o
                0x00022078                W_CacheLumpNum
 .text.W_CacheLumpName
                0x00022150       0x20 /tmp/cckYeBJT.o
                0x00022150                W_CacheLumpName
 .text.Z_Init   0x00022170       0x5c /tmp/ccj4PUoF.o
                0x00022170                Z_Init
 .text.Z_Free   0x000221cc       0xdc /tmp/ccj4PUoF.o
                0x000221cc                Z_Free
 .text.Z_Malloc
                0x000222a8      0x174 /tmp/ccj4PUoF.o
                0x000222a8                Z_Malloc
 .text.Z_FreeTags
                0x0002241c       0x78 /tmp/ccj4PUoF.o
                0x0002241c                Z_FreeTags
 .text.Z_CheckHeap
                0x00022494       0xa4 /tmp/ccj4PUoF.o
                0x00022494                Z_CheckHeap
 .text.Z_ChangeTag2
                0x00022538       0x6c /tmp/ccj4PUoF.o
                0x00022538                Z_ChangeTag2
 .text.D_PostEvent
                0x000225a4       0x50 /tmp/ccp2R3Ps.o
                0x000225a4                D_PostEvent
 .text.D_ProcessEvents
                0x000225f4       0x78 /tmp/ccp2R3Ps.o
                0x000225f4                D_ProcessEvents
 .text.D_PageTicker
                0x0002266c       0x1c /tmp/ccp2R3Ps.o
                0x0002266c                D_PageTicker
 .text.D_PageDrawer
                0x00022688       0x30 /tmp/ccp2R3Ps.o
                0x00022688                D_PageDrawer
 .text.D_Display
                0x000226b8      0x35c /tmp/ccp2R3Ps.o
                0x000226b8                D_Display
 .text.D_AdvanceDemo
                0x00022a14        0xc /tmp/ccp2R3Ps.o
                0x00022a14                D_AdvanceDemo
 .text.D_DoAdvanceDemo
                0x00022a20      0x154 /tmp/ccp2R3Ps.o
                0x00022a20                D_DoAdvanceDemo
 .text.D_DoomLoop
                0x00022b74      0x110 /tmp/ccp2R3Ps.o
                0x00022b74                D_DoomLoop
 .text.D_StartTitle
                0x00022c84       0x18 /tmp/ccp2R3Ps.o
                0x00022c84                D_StartTitle
 .text.D_AddFile
                0x00022c9c       0x80 /tmp/ccp2R3Ps.o
                0x00022c9c                D_AddFile
 .text.IdentifyVersion
                0x00022d1c       0x18 /tmp/ccp2R3Ps.o
                0x00022d1c                IdentifyVersion
 .text.D_DoomMain
                0x00022d34      0x174 /tmp/ccp2R3Ps.o
                0x00022d34                D_DoomMain
 .text.startup.main
                0x00022ea8       0x1c /tmp/ccAXYIlt.o
                0x00022ea8                main
 .text.I_InitNetwork
                0x00022ec4       0x4c /tmp/cc7CcWHw.o
                0x00022ec4                I_InitNetwork
 .text.I_NetCmd
                0x00022f10        0x4 /tmp/cc7CcWHw.o
                0x00022f10                I_NetCmd
 .text.I_Init   0x00022f14        0x8 /tmp/ccA3sui6.o
                0x00022f14                I_Init
 .text.I_ZoneBase
                0x00022f1c       0x10 /tmp/ccA3sui6.o
                0x00022f1c                I_ZoneBase
 .text.I_GetTime
                0x00022f2c       0x38 /tmp/ccA3sui6.o
                0x00022f2c                I_GetTime
 .text.I_StartFrame
                0x00022f64        0x4 /tmp/ccA3sui6.o
                0x00022f64                I_StartFrame
 .text.I_StartTic
                0x00022f68      0x168 /tmp/ccA3sui6.o
                0x00022f68                I_StartTic
 .text.I_BaseTiccmd
                0x000230d0        0x8 /tmp/ccA3sui6.o
                0x000230d0                I_BaseTiccmd
 .text.I_Quit   0x000230d8       0x1c /tmp/ccA3sui6.o
                0x000230d8                I_Quit
 .text.I_Tactile
                0x000230f4        0x4 /tmp/ccA3sui6.o
                0x000230f4                I_Tactile
 .text.I_Error  0x000230f8       0x9c /tmp/ccA3sui6.o
                0x000230f8                I_Error
 .text.I_InitGraphics
                0x00023194        0xc /tmp/ccx6M4gp.o
                0x00023194                I_InitGraphics
 .text.I_ShutdownGraphics
                0x000231a0        0x4 /tmp/ccx6M4gp.o
                0x000231a0                I_ShutdownGraphics
 .text.I_SetPalette
                0x000231a4       0xbc /tmp/ccx6M4gp.o
                0x000231a4                I_SetPalette
 .text.I_UpdateNoBlit
                0x00023260        0x4 /tmp/ccx6M4gp.o
                0x00023260                I_UpdateNoBlit
 .text.I_FinishUpdate
                0x00023264       0x7c /tmp/ccx6M4gp.o
                0x00023264                I_FinishUpdate
 .text.I_WaitVBL
                0x000232e0       0x14 /tmp/ccx6M4gp.o
                0x000232e0                I_WaitVBL
 .text.I_ReadScreen
                0x000232f4       0x14 /tmp/ccx6M4gp.o
                0x000232f4                I_ReadScreen
 .text.S_Init   0x00023308        0x4 /tmp/ccb1royM.o
                0x00023308                S_Init
 .text.S_Start  0x0002330c        0x4 /tmp/ccb1royM.o
                0x0002330c                S_Start
 .text.S_StartSound
                0x00023310        0x4 /tmp/ccb1royM.o
                0x00023310                S_StartSound
 .text.S_StopSound
                0x00023314        0x4 /tmp/ccb1royM.o
                0x00023314                S_StopSound
 .text.S_PauseSound
                0x00023318        0x4 /tmp/ccb1royM.o
                0x00023318                S_PauseSound
 .text.S_ResumeSound
                0x0002331c        0x4 /tmp/ccb1royM.o
                0x0002331c                S_ResumeSound
 .text.S_StartMusic
                0x00023320        0x4 /tmp/ccb1royM.o
                0x00023320                S_StartMusic
 .text.S_ChangeMusic
                0x00023324        0x4 /tmp/ccb1royM.o
                0x00023324                S_ChangeMusic
 .text.S_SetMusicVolume
                0x00023328        0x4 /tmp/ccb1royM.o
                0x00023328                S_SetMusicVolume
 .text.S_SetSfxVolume
                0x0002332c        0x4 /tmp/ccb1royM.o
                0x0002332c                S_SetSfxVolume
 .text.console_putchar
                0x00023330        0xc /tmp/cchsEYcK.o
                0x00023330                console_putchar
 .text.console_getchar
                0x0002333c        0x4 /tmp/cchsEYcK.o
                0x0002333c                console_getchar
 .text.console_getchar_nowait
                0x00023340        0x8 /tmp/cchsEYcK.o
                0x00023340                console_getchar_nowait
 .text.console_puts
                0x00023348       0x3c /tmp/cchsEYcK.o
                0x00023348                console_puts
 .text.console_printf
                0x00023384       0x6c /tmp/cchsEYcK.o
                0x00023384                console_printf
 .text._sbrk    0x000233f0       0x38 /tmp/cc9bKNsH.o
                0x000233f0                _sbrk
 .text._open    0x00023428       0xe8 /tmp/cc9bKNsH.o
                0x00023428                _open
 .text._read    0x00023510       0xa0 /tmp/cc9bKNsH.o
                0x00023510                _read
 .text._close   0x000235b0       0x48 /tmp/cc9bKNsH.o
                0x000235b0                _close
 .text._lseek   0x000235f8       0x90 /tmp/cc9bKNsH.o
                0x000235f8                _lseek
 .text._stat    0x00023688       0x28 /tmp/cc9bKNsH.o
                0x00023688                _stat
 .text._fstat   0x000236b0       0x28 /tmp/cc9bKNsH.o
                0x000236b0                _fstat
 .text._isatty  0x000236d8       0x30 /tmp/cc9bKNsH.o
                0x000236d8                _isatty
 .text.mini_itoa.part.0
                0x00023708       0xdc /tmp/ccGzfaEn.o
 .text._puts.isra.0
                0x000237e4       0x50 /tmp/ccGzfaEn.o
 .text.mini_vsnprintf
                0x00023834      0x1ec /tmp/ccGzfaEn.o
                0x00023834                mini_vsnprintf
 .text._write   0x00023a20       0x2c /tmp/ccucBjw5.o
                0x00023a20                _write
 .text.wait_for_uart_ready
                0x00023a4c       0x10 /tmp/ccucBjw5.o
                0x00023a4c                wait_for_uart_ready
 .text.transmit_byte
                0x00023a5c        0xc /tmp/ccucBjw5.o
                0x00023a5c                transmit_byte
 .text.memset   0x00023a68       0xb8 /tmp/cco7SOxs.o
                0x00023a68                memset
 .text.memcpy   0x00023b20       0xd4 /tmp/cco7SOxs.o
                0x00023b20                memcpy
 .text.abs      0x00023bf4       0x10 /prog/riscv/lib/gcc/riscv64-unknown-elf/14.2.0/../../../../riscv64-unknown-elf/lib/rv32im_zicsr/ilp32/libc_nano.a(libc_a-abs.o)
                0x00023bf4                abs
 .text.atoi     0x00023c04        0xc /prog/riscv/lib/gcc/riscv64-unknown-elf/14.2.0/../../../../riscv64-unknown-elf/lib/rv32im_zicsr/ilp32/libc_nano.a(libc_a-atoi.o)
                0x00023c04                atoi
 .text.calloc   0x00023c10       0x10 /prog/riscv/lib/gcc/riscv64-unknown-elf/14.2.0/../../../../riscv64-unknown-elf/lib/rv32im_zicsr/ilp32/libc_nano.a(libc_a-calloc.o)
                0x00023c10                calloc
 .text._calloc_r
                0x00023c20       0x5c /prog/riscv/lib/gcc/riscv64-unknown-elf/14.2.0/../../../../riscv64-unknown-elf/lib/rv32im_zicsr/ilp32/libc_nano.a(libc_a-callocr.o)
                0x00023c20                _calloc_r
 .text.exit     0x00023c7c       0x38 /prog/riscv/lib/gcc/riscv64-unknown-elf/14.2.0/../../../../riscv64-unknown-elf/lib/rv32im_zicsr/ilp32/libc_nano.a(libc_a-exit.o)
                0x00023c7c                exit
 .text.malloc   0x00023cb4        0xc /prog/riscv/lib/gcc/riscv64-unknown-elf/14.2.0/../../../../riscv64-unknown-elf/lib/rv32im_zicsr/ilp32/libc_nano.a(libc_a-malloc.o)
                0x00023cb4                malloc
 .text.sbrk_aligned
                0x00023cc0       0x84 /prog/riscv/lib/gcc/riscv64-unknown-elf/14.2.0/../../../../riscv64-unknown-elf/lib/rv32im_zicsr/ilp32/libc_nano.a(libc_a-mallocr.o)
 .text._malloc_r
                0x00023d44      0x1bc /prog/riscv/lib/gcc/riscv64-unknown-elf/14.2.0/../../../../riscv64-unknown-elf/lib/rv32im_zicsr/ilp32/libc_nano.a(libc_a-mallocr.o)
                0x00023d44                _malloc_r
 .text.__malloc_lock
                0x00023f00        0x4 /prog/riscv/lib/gcc/riscv64-unknown-elf/14.2.0/../../../../riscv64-unknown-elf/lib/rv32im_zicsr/ilp32/libc_nano.a(libc_a-mlock.o)
                0x00023f00                __malloc_lock
 .text.__malloc_unlock
                0x00023f04        0x4 /prog/riscv/lib/gcc/riscv64-unknown-elf/14.2.0/../../../../riscv64-unknown-elf/lib/rv32im_zicsr/ilp32/libc_nano.a(libc_a-mlock.o)
                0x00023f04                __malloc_unlock
 .text.realloc  0x00023f08       0x10 /prog/riscv/lib/gcc/riscv64-unknown-elf/14.2.0/../../../../riscv64-unknown-elf/lib/rv32im_zicsr/ilp32/libc_nano.a(libc_a-realloc.o)
                0x00023f08                realloc
 .text._realloc_r
                0x00023f18       0xd8 /prog/riscv/lib/gcc/riscv64-unknown-elf/14.2.0/../../../../riscv64-unknown-elf/lib/rv32im_zicsr/ilp32/libc_nano.a(libc_a-reallocr.o)
                0x00023f18                _realloc_r
 .text._strtol_l.isra.0
                0x00023ff0      0x194 /prog/riscv/lib/gcc/riscv64-unknown-elf/14.2.0/../../../../riscv64-unknown-elf/lib/rv32im_zicsr/ilp32/libc_nano.a(libc_a-strtol.o)
 .text._strtol_r
                0x00024184        0x4 /prog/riscv/lib/gcc/riscv64-unknown-elf/14.2.0/../../../../riscv64-unknown-elf/lib/rv32im_zicsr/ilp32/libc_nano.a(libc_a-strtol.o)
                0x00024184                _strtol_r
 .text.strtol   0x00024188       0x14 /prog/riscv/lib/gcc/riscv64-unknown-elf/14.2.0/../../../../riscv64-unknown-elf/lib/rv32im_zicsr/ilp32/libc_nano.a(libc_a-strtol.o)
                0x00024188                strtol
 .text.__sfputc_r
                0x0002419c       0x3c /prog/riscv/lib/gcc/riscv64-unknown-elf/14.2.0/../../../../riscv64-unknown-elf/lib/rv32im_zicsr/ilp32/libc_nano.a(libc_a-nano-vfprintf.o)
 .text.__sfputs_r
                0x000241d8       0x74 /prog/riscv/lib/gcc/riscv64-unknown-elf/14.2.0/../../../../riscv64-unknown-elf/lib/rv32im_zicsr/ilp32/libc_nano.a(libc_a-nano-vfprintf.o)
                0x000241d8                __sfputs_r
 .text._vfprintf_r
                0x0002424c      0x37c /prog/riscv/lib/gcc/riscv64-unknown-elf/14.2.0/../../../../riscv64-unknown-elf/lib/rv32im_zicsr/ilp32/libc_nano.a(libc_a-nano-vfprintf.o)
                0x0002424c                _vfiprintf_r
                0x0002424c                _vfprintf_r
 .text.vfprintf
                0x000245c8       0x14 /prog/riscv/lib/gcc/riscv64-unknown-elf/14.2.0/../../../../riscv64-unknown-elf/lib/rv32im_zicsr/ilp32/libc_nano.a(libc_a-nano-vfprintf.o)
                0x000245c8                vfiprintf
                0x000245c8                vfprintf
 .text._printf_common
                0x000245dc      0x1b4 /prog/riscv/lib/gcc/riscv64-unknown-elf/14.2.0/../../../../riscv64-unknown-elf/lib/rv32im_zicsr/ilp32/libc_nano.a(libc_a-nano-vfprintf_i.o)
                0x000245dc                _printf_common
 .text._printf_i
                0x00024790      0x390 /prog/riscv/lib/gcc/riscv64-unknown-elf/14.2.0/../../../../riscv64-unknown-elf/lib/rv32im_zicsr/ilp32/libc_nano.a(libc_a-nano-vfprintf_i.o)
                0x00024790                _printf_i
 .text._fclose_r
                0x00024b20       0xdc /prog/riscv/lib/gcc/riscv64-unknown-elf/14.2.0/../../../../riscv64-unknown-elf/lib/rv32im_zicsr/ilp32/libc_nano.a(libc_a-fclose.o)
                0x00024b20                _fclose_r
 .text.fclose   0x00024bfc        0xc /prog/riscv/lib/gcc/riscv64-unknown-elf/14.2.0/../../../../riscv64-unknown-elf/lib/rv32im_zicsr/ilp32/libc_nano.a(libc_a-fclose.o)
                0x00024bfc                fclose
 .text.__sflush_r
                0x00024c08      0x1cc /prog/riscv/lib/gcc/riscv64-unknown-elf/14.2.0/../../../../riscv64-unknown-elf/lib/rv32im_zicsr/ilp32/libc_nano.a(libc_a-fflush.o)
                0x00024c08                __sflush_r
 .text._fflush_r
                0x00024dd4       0x68 /prog/riscv/lib/gcc/riscv64-unknown-elf/14.2.0/../../../../riscv64-unknown-elf/lib/rv32im_zicsr/ilp32/libc_nano.a(libc_a-fflush.o)
                0x00024dd4                _fflush_r
 .text.fflush   0x00024e3c       0x2c /prog/riscv/lib/gcc/riscv64-unknown-elf/14.2.0/../../../../riscv64-unknown-elf/lib/rv32im_zicsr/ilp32/libc_nano.a(libc_a-fflush.o)
                0x00024e3c                fflush
 .text.std      0x00024e68       0x88 /prog/riscv/lib/gcc/riscv64-unknown-elf/14.2.0/../../../../riscv64-unknown-elf/lib/rv32im_zicsr/ilp32/libc_nano.a(libc_a-findfp.o)
 .text.stdio_exit_handler
                0x00024ef0       0x1c /prog/riscv/lib/gcc/riscv64-unknown-elf/14.2.0/../../../../riscv64-unknown-elf/lib/rv32im_zicsr/ilp32/libc_nano.a(libc_a-findfp.o)
 .text.cleanup_stdio
                0x00024f0c       0x70 /prog/riscv/lib/gcc/riscv64-unknown-elf/14.2.0/../../../../riscv64-unknown-elf/lib/rv32im_zicsr/ilp32/libc_nano.a(libc_a-findfp.o)
 .text.global_stdio_init.part.0
                0x00024f7c       0x58 /prog/riscv/lib/gcc/riscv64-unknown-elf/14.2.0/../../../../riscv64-unknown-elf/lib/rv32im_zicsr/ilp32/libc_nano.a(libc_a-findfp.o)
 .text.__sfp    0x00024fd4      0x108 /prog/riscv/lib/gcc/riscv64-unknown-elf/14.2.0/../../../../riscv64-unknown-elf/lib/rv32im_zicsr/ilp32/libc_nano.a(libc_a-findfp.o)
                0x00024fd4                __sfp
 .text.__sinit  0x000250dc       0x24 /prog/riscv/lib/gcc/riscv64-unknown-elf/14.2.0/../../../../riscv64-unknown-elf/lib/rv32im_zicsr/ilp32/libc_nano.a(libc_a-findfp.o)
                0x000250dc                __sinit
 .text.__sfp_lock_acquire
                0x00025100        0x4 /prog/riscv/lib/gcc/riscv64-unknown-elf/14.2.0/../../../../riscv64-unknown-elf/lib/rv32im_zicsr/ilp32/libc_nano.a(libc_a-findfp.o)
                0x00025100                __sfp_lock_acquire
 .text.__sfp_lock_release
                0x00025104        0x4 /prog/riscv/lib/gcc/riscv64-unknown-elf/14.2.0/../../../../riscv64-unknown-elf/lib/rv32im_zicsr/ilp32/libc_nano.a(libc_a-findfp.o)
                0x00025104                __sfp_lock_release
 .text._fopen_r
                0x00025108       0xf0 /prog/riscv/lib/gcc/riscv64-unknown-elf/14.2.0/../../../../riscv64-unknown-elf/lib/rv32im_zicsr/ilp32/libc_nano.a(libc_a-fopen.o)
                0x00025108                _fopen_r
 .text.fopen    0x000251f8       0x10 /prog/riscv/lib/gcc/riscv64-unknown-elf/14.2.0/../../../../riscv64-unknown-elf/lib/rv32im_zicsr/ilp32/libc_nano.a(libc_a-fopen.o)
                0x000251f8                fopen
 .text.fprintf  0x00025208       0x44 /prog/riscv/lib/gcc/riscv64-unknown-elf/14.2.0/../../../../riscv64-unknown-elf/lib/rv32im_zicsr/ilp32/libc_nano.a(libc_a-fprintf.o)
                0x00025208                fprintf
                0x00025208                fiprintf
 .text.fscanf   0x0002524c       0x44 /prog/riscv/lib/gcc/riscv64-unknown-elf/14.2.0/../../../../riscv64-unknown-elf/lib/rv32im_zicsr/ilp32/libc_nano.a(libc_a-fscanf.o)
                0x0002524c                fiscanf
                0x0002524c                fscanf
 .text._fseek_r
                0x00025290        0x4 /prog/riscv/lib/gcc/riscv64-unknown-elf/14.2.0/../../../../riscv64-unknown-elf/lib/rv32im_zicsr/ilp32/libc_nano.a(libc_a-fseek.o)
                0x00025290                _fseek_r
 .text._fwalk_sglue
                0x00025294       0xb0 /prog/riscv/lib/gcc/riscv64-unknown-elf/14.2.0/../../../../riscv64-unknown-elf/lib/rv32im_zicsr/ilp32/libc_nano.a(libc_a-fwalk.o)
                0x00025294                _fwalk_sglue
 .text.printf   0x00025344       0x4c /prog/riscv/lib/gcc/riscv64-unknown-elf/14.2.0/../../../../riscv64-unknown-elf/lib/rv32im_zicsr/ilp32/libc_nano.a(libc_a-printf.o)
                0x00025344                printf
                0x00025344                iprintf
 .text.setbuf   0x00025390       0x10 /prog/riscv/lib/gcc/riscv64-unknown-elf/14.2.0/../../../../riscv64-unknown-elf/lib/rv32im_zicsr/ilp32/libc_nano.a(libc_a-setbuf.o)
                0x00025390                setbuf
 .text.setvbuf  0x000253a0      0x1ec /prog/riscv/lib/gcc/riscv64-unknown-elf/14.2.0/../../../../riscv64-unknown-elf/lib/rv32im_zicsr/ilp32/libc_nano.a(libc_a-setvbuf.o)
                0x000253a0                setvbuf
 .text.sprintf  0x0002558c       0x74 /prog/riscv/lib/gcc/riscv64-unknown-elf/14.2.0/../../../../riscv64-unknown-elf/lib/rv32im_zicsr/ilp32/libc_nano.a(libc_a-sprintf.o)
                0x0002558c                sprintf
                0x0002558c                siprintf
 .text.sscanf   0x00025600       0x8c /prog/riscv/lib/gcc/riscv64-unknown-elf/14.2.0/../../../../riscv64-unknown-elf/lib/rv32im_zicsr/ilp32/libc_nano.a(libc_a-sscanf.o)
                0x00025600                sscanf
                0x00025600                siscanf
 .text.__sread  0x0002568c       0x50 /prog/riscv/lib/gcc/riscv64-unknown-elf/14.2.0/../../../../riscv64-unknown-elf/lib/rv32im_zicsr/ilp32/libc_nano.a(libc_a-stdio.o)
                0x0002568c                __sread
 .text.__seofread
                0x000256dc        0x8 /prog/riscv/lib/gcc/riscv64-unknown-elf/14.2.0/../../../../riscv64-unknown-elf/lib/rv32im_zicsr/ilp32/libc_nano.a(libc_a-stdio.o)
                0x000256dc                __seofread
 .text.__swrite
                0x000256e4       0x84 /prog/riscv/lib/gcc/riscv64-unknown-elf/14.2.0/../../../../riscv64-unknown-elf/lib/rv32im_zicsr/ilp32/libc_nano.a(libc_a-stdio.o)
                0x000256e4                __swrite
 .text.__sseek  0x00025768       0x58 /prog/riscv/lib/gcc/riscv64-unknown-elf/14.2.0/../../../../riscv64-unknown-elf/lib/rv32im_zicsr/ilp32/libc_nano.a(libc_a-stdio.o)
                0x00025768                __sseek
 .text.__sclose
                0x000257c0        0x8 /prog/riscv/lib/gcc/riscv64-unknown-elf/14.2.0/../../../../riscv64-unknown-elf/lib/rv32im_zicsr/ilp32/libc_nano.a(libc_a-stdio.o)
                0x000257c0                __sclose
 .text.__swbuf_r
                0x000257c8      0x100 /prog/riscv/lib/gcc/riscv64-unknown-elf/14.2.0/../../../../riscv64-unknown-elf/lib/rv32im_zicsr/ilp32/libc_nano.a(libc_a-wbuf.o)
                0x000257c8                __swbuf_r
 .text.__swsetup_r
                0x000258c8      0x114 /prog/riscv/lib/gcc/riscv64-unknown-elf/14.2.0/../../../../riscv64-unknown-elf/lib/rv32im_zicsr/ilp32/libc_nano.a(libc_a-wsetup.o)
                0x000258c8                __swsetup_r
 .text._fseeko_r
                0x000259dc      0x1cc /prog/riscv/lib/gcc/riscv64-unknown-elf/14.2.0/../../../../riscv64-unknown-elf/lib/rv32im_zicsr/ilp32/libc_nano.a(libc_a-fseeko.o)
                0x000259dc                _fseeko_r
 .text.memchr   0x00025ba8       0x24 /prog/riscv/lib/gcc/riscv64-unknown-elf/14.2.0/../../../../riscv64-unknown-elf/lib/rv32im_zicsr/ilp32/libc_nano.a(libc_a-memchr.o)
                0x00025ba8                memchr
 .text.strcasecmp
                0x00025bcc       0x64 /prog/riscv/lib/gcc/riscv64-unknown-elf/14.2.0/../../../../riscv64-unknown-elf/lib/rv32im_zicsr/ilp32/libc_nano.a(libc_a-strcasecmp.o)
                0x00025bcc                strcasecmp
 .text.strncasecmp
                0x00025c30       0x70 /prog/riscv/lib/gcc/riscv64-unknown-elf/14.2.0/../../../../riscv64-unknown-elf/lib/rv32im_zicsr/ilp32/libc_nano.a(libc_a-strncasecmp.o)
                0x00025c30                strncasecmp
 .text.strncmp  0x00025ca0       0x3c /prog/riscv/lib/gcc/riscv64-unknown-elf/14.2.0/../../../../riscv64-unknown-elf/lib/rv32im_zicsr/ilp32/libc_nano.a(libc_a-strncmp.o)
                0x00025ca0                strncmp
 .text.strncpy  0x00025cdc       0x38 /prog/riscv/lib/gcc/riscv64-unknown-elf/14.2.0/../../../../riscv64-unknown-elf/lib/rv32im_zicsr/ilp32/libc_nano.a(libc_a-strncpy.o)
                0x00025cdc                strncpy
 .text._close_r
                0x00025d14       0x48 /prog/riscv/lib/gcc/riscv64-unknown-elf/14.2.0/../../../../riscv64-unknown-elf/lib/rv32im_zicsr/ilp32/libc_nano.a(libc_a-closer.o)
                0x00025d14                _close_r
 .text._lseek_r
                0x00025d5c       0x50 /prog/riscv/lib/gcc/riscv64-unknown-elf/14.2.0/../../../../riscv64-unknown-elf/lib/rv32im_zicsr/ilp32/libc_nano.a(libc_a-lseekr.o)
                0x00025d5c                _lseek_r
 .text._open_r  0x00025dac       0x50 /prog/riscv/lib/gcc/riscv64-unknown-elf/14.2.0/../../../../riscv64-unknown-elf/lib/rv32im_zicsr/ilp32/libc_nano.a(libc_a-openr.o)
                0x00025dac                _open_r
 .text._read_r  0x00025dfc       0x50 /prog/riscv/lib/gcc/riscv64-unknown-elf/14.2.0/../../../../riscv64-unknown-elf/lib/rv32im_zicsr/ilp32/libc_nano.a(libc_a-readr.o)
                0x00025dfc                _read_r
 .text._sbrk_r  0x00025e4c       0x48 /prog/riscv/lib/gcc/riscv64-unknown-elf/14.2.0/../../../../riscv64-unknown-elf/lib/rv32im_zicsr/ilp32/libc_nano.a(libc_a-sbrkr.o)
                0x00025e4c                _sbrk_r
 .text._write_r
                0x00025e94       0x50 /prog/riscv/lib/gcc/riscv64-unknown-elf/14.2.0/../../../../riscv64-unknown-elf/lib/rv32im_zicsr/ilp32/libc_nano.a(libc_a-writer.o)
                0x00025e94                _write_r
 .text.__errno  0x00025ee4        0x8 /prog/riscv/lib/gcc/riscv64-unknown-elf/14.2.0/../../../../riscv64-unknown-elf/lib/rv32im_zicsr/ilp32/libc_nano.a(libc_a-errno.o)
                0x00025ee4                __errno
 .text.close    0x00025eec        0xc /prog/riscv/lib/gcc/riscv64-unknown-elf/14.2.0/../../../../riscv64-unknown-elf/lib/rv32im_zicsr/ilp32/libc_nano.a(libc_a-sysclose.o)
                0x00025eec                close
 .text.fstat    0x00025ef8       0x10 /prog/riscv/lib/gcc/riscv64-unknown-elf/14.2.0/../../../../riscv64-unknown-elf/lib/rv32im_zicsr/ilp32/libc_nano.a(libc_a-sysfstat.o)
                0x00025ef8                fstat
 .text.lseek    0x00025f08       0x14 /prog/riscv/lib/gcc/riscv64-unknown-elf/14.2.0/../../../../riscv64-unknown-elf/lib/rv32im_zicsr/ilp32/libc_nano.a(libc_a-syslseek.o)
                0x00025f08                lseek
 .text.open     0x00025f1c       0x48 /prog/riscv/lib/gcc/riscv64-unknown-elf/14.2.0/../../../../riscv64-unknown-elf/lib/rv32im_zicsr/ilp32/libc_nano.a(libc_a-sysopen.o)
                0x00025f1c                open
 .text.read     0x00025f64       0x14 /prog/riscv/lib/gcc/riscv64-unknown-elf/14.2.0/../../../../riscv64-unknown-elf/lib/rv32im_zicsr/ilp32/libc_nano.a(libc_a-sysread.o)
                0x00025f64                read
 .text.stat     0x00025f78       0x10 /prog/riscv/lib/gcc/riscv64-unknown-elf/14.2.0/../../../../riscv64-unknown-elf/lib/rv32im_zicsr/ilp32/libc_nano.a(libc_a-sysstat.o)
                0x00025f78                stat
 .text.write    0x00025f88       0x14 /prog/riscv/lib/gcc/riscv64-unknown-elf/14.2.0/../../../../riscv64-unknown-elf/lib/rv32im_zicsr/ilp32/libc_nano.a(libc_a-syswrite.o)
                0x00025f88                write
 .text          0x00025f9c       0x3c /prog/riscv/lib/gcc/riscv64-unknown-elf/14.2.0/../../../../riscv64-unknown-elf/lib/rv32im_zicsr/ilp32/libc_nano.a(libc_a-memmove.o)
                0x00025f9c                memmove
 .text.strlen   0x00025fd8       0x1c /prog/riscv/lib/gcc/riscv64-unknown-elf/14.2.0/../../../../riscv64-unknown-elf/lib/rv32im_zicsr/ilp32/libc_nano.a(libc_a-strlen.o)
                0x00025fd8                strlen
 .text.strcpy   0x00025ff4       0x1c /prog/riscv/lib/gcc/riscv64-unknown-elf/14.2.0/../../../../riscv64-unknown-elf/lib/rv32im_zicsr/ilp32/libc_nano.a(libc_a-strcpy.o)
                0x00025ff4                strcpy
 .text          0x00026010       0x20 /prog/riscv/lib/gcc/riscv64-unknown-elf/14.2.0/../../../../riscv64-unknown-elf/lib/rv32im_zicsr/ilp32/libc_nano.a(libc_a-strcmp.o)
                0x00026010                strcmp
 .text._free_r  0x00026030       0xf8 /prog/riscv/lib/gcc/riscv64-unknown-elf/14.2.0/../../../../riscv64-unknown-elf/lib/rv32im_zicsr/ilp32/libc_nano.a(libc_a-freer.o)
                0x00026030                _free_r
 .text._malloc_usable_size_r
                0x00026128       0x1c /prog/riscv/lib/gcc/riscv64-unknown-elf/14.2.0/../../../../riscv64-unknown-elf/lib/rv32im_zicsr/ilp32/libc_nano.a(libc_a-msizer.o)
                0x00026128                _malloc_usable_size_r
 .text.__ssputs_r
                0x00026144      0x174 /prog/riscv/lib/gcc/riscv64-unknown-elf/14.2.0/../../../../riscv64-unknown-elf/lib/rv32im_zicsr/ilp32/libc_nano.a(libc_a-nano-svfprintf.o)
                0x00026144                __ssputs_r
 .text._svfprintf_r
                0x000262b8      0x380 /prog/riscv/lib/gcc/riscv64-unknown-elf/14.2.0/../../../../riscv64-unknown-elf/lib/rv32im_zicsr/ilp32/libc_nano.a(libc_a-nano-svfprintf.o)
                0x000262b8                _svfprintf_r
                0x000262b8                _svfiprintf_r
 .text._sungetc_r
                0x00026638       0xf0 /prog/riscv/lib/gcc/riscv64-unknown-elf/14.2.0/../../../../riscv64-unknown-elf/lib/rv32im_zicsr/ilp32/libc_nano.a(libc_a-nano-svfscanf.o)
                0x00026638                _sungetc_r
 .text.__ssrefill_r
                0x00026728       0x70 /prog/riscv/lib/gcc/riscv64-unknown-elf/14.2.0/../../../../riscv64-unknown-elf/lib/rv32im_zicsr/ilp32/libc_nano.a(libc_a-nano-svfscanf.o)
                0x00026728                __ssrefill_r
 .text.__ssvfscanf_r
                0x00026798      0x470 /prog/riscv/lib/gcc/riscv64-unknown-elf/14.2.0/../../../../riscv64-unknown-elf/lib/rv32im_zicsr/ilp32/libc_nano.a(libc_a-nano-svfscanf.o)
                0x00026798                __ssvfscanf_r
                0x00026798                __ssvfiscanf_r
 .text.__svfscanf_r
                0x00026c08      0x470 /prog/riscv/lib/gcc/riscv64-unknown-elf/14.2.0/../../../../riscv64-unknown-elf/lib/rv32im_zicsr/ilp32/libc_nano.a(libc_a-nano-vfscanf.o)
                0x00026c08                __svfiscanf_r
                0x00026c08                __svfscanf_r
 .text._vfscanf_r
                0x00027078       0x4c /prog/riscv/lib/gcc/riscv64-unknown-elf/14.2.0/../../../../riscv64-unknown-elf/lib/rv32im_zicsr/ilp32/libc_nano.a(libc_a-nano-vfscanf.o)
                0x00027078                _vfiscanf_r
                0x00027078                _vfscanf_r
 .text._scanf_chars
                0x000270c4      0x188 /prog/riscv/lib/gcc/riscv64-unknown-elf/14.2.0/../../../../riscv64-unknown-elf/lib/rv32im_zicsr/ilp32/libc_nano.a(libc_a-nano-vfscanf_i.o)
                0x000270c4                _scanf_chars
 .text._scanf_i
                0x0002724c      0x374 /prog/riscv/lib/gcc/riscv64-unknown-elf/14.2.0/../../../../riscv64-unknown-elf/lib/rv32im_zicsr/ilp32/libc_nano.a(libc_a-nano-vfscanf_i.o)
                0x0002724c                _scanf_i
 .text.__sflags
                0x000275c0       0xa8 /prog/riscv/lib/gcc/riscv64-unknown-elf/14.2.0/../../../../riscv64-unknown-elf/lib/rv32im_zicsr/ilp32/libc_nano.a(libc_a-flags.o)
                0x000275c0                __sflags
 .text.__swhatbuf_r
                0x00027668       0x90 /prog/riscv/lib/gcc/riscv64-unknown-elf/14.2.0/../../../../riscv64-unknown-elf/lib/rv32im_zicsr/ilp32/libc_nano.a(libc_a-makebuf.o)
                0x00027668                __swhatbuf_r
 .text.__smakebuf_r
                0x000276f8       0xd0 /prog/riscv/lib/gcc/riscv64-unknown-elf/14.2.0/../../../../riscv64-unknown-elf/lib/rv32im_zicsr/ilp32/libc_nano.a(libc_a-makebuf.o)
                0x000276f8                __smakebuf_r
 .text.lflush   0x000277c8       0x20 /prog/riscv/lib/gcc/riscv64-unknown-elf/14.2.0/../../../../riscv64-unknown-elf/lib/rv32im_zicsr/ilp32/libc_nano.a(libc_a-refill.o)
 .text.__srefill_r
                0x000277e8      0x17c /prog/riscv/lib/gcc/riscv64-unknown-elf/14.2.0/../../../../riscv64-unknown-elf/lib/rv32im_zicsr/ilp32/libc_nano.a(libc_a-refill.o)
                0x000277e8                __srefill_r
 .text.__sccl   0x00027964       0xd4 /prog/riscv/lib/gcc/riscv64-unknown-elf/14.2.0/../../../../riscv64-unknown-elf/lib/rv32im_zicsr/ilp32/libc_nano.a(libc_a-sccl.o)
                0x00027964                __sccl
 .text.__submore
                0x00027a38       0xcc /prog/riscv/lib/gcc/riscv64-unknown-elf/14.2.0/../../../../riscv64-unknown-elf/lib/rv32im_zicsr/ilp32/libc_nano.a(libc_a-ungetc.o)
                0x00027a38                __submore
 .text._ungetc_r
                0x00027b04      0x154 /prog/riscv/lib/gcc/riscv64-unknown-elf/14.2.0/../../../../riscv64-unknown-elf/lib/rv32im_zicsr/ilp32/libc_nano.a(libc_a-ungetc.o)
                0x00027b04                _ungetc_r
 .text._fstat_r
                0x00027c58       0x4c /prog/riscv/lib/gcc/riscv64-unknown-elf/14.2.0/../../../../riscv64-unknown-elf/lib/rv32im_zicsr/ilp32/libc_nano.a(libc_a-fstatr.o)
                0x00027c58                _fstat_r
 .text._isatty_r
                0x00027ca4       0x48 /prog/riscv/lib/gcc/riscv64-unknown-elf/14.2.0/../../../../riscv64-unknown-elf/lib/rv32im_zicsr/ilp32/libc_nano.a(libc_a-isattyr.o)
                0x00027ca4                _isatty_r
 .text._stat_r  0x00027cec       0x4c /prog/riscv/lib/gcc/riscv64-unknown-elf/14.2.0/../../../../riscv64-unknown-elf/lib/rv32im_zicsr/ilp32/libc_nano.a(libc_a-statr.o)
                0x00027cec                _stat_r
 .text._strtoul_l.isra.0
                0x00027d38      0x150 /prog/riscv/lib/gcc/riscv64-unknown-elf/14.2.0/../../../../riscv64-unknown-elf/lib/rv32im_zicsr/ilp32/libc_nano.a(libc_a-strtoul.o)
 .text._strtoul_r
                0x00027e88        0x4 /prog/riscv/lib/gcc/riscv64-unknown-elf/14.2.0/../../../../riscv64-unknown-elf/lib/rv32im_zicsr/ilp32/libc_nano.a(libc_a-strtoul.o)
                0x00027e88                _strtoul_r
 .text          0x00027e8c      0x474 /prog/riscv/lib/gcc/riscv64-unknown-elf/14.2.0/rv32im_zicsr/ilp32/libgcc.a(_divdi3.o)
                0x00027e8c                __divdi3
 .text._exit    0x00028300        0x4 /prog/riscv/lib/gcc/riscv64-unknown-elf/14.2.0/../../../../riscv64-unknown-elf/lib/rv32im_zicsr/ilp32/libnosys.a(_exit.o)
                0x00028300                _exit
                0x00028304                        . = ALIGN (0x4)
                [!provide]                        PROVIDE (__etext = .)
                0x00028304                        PROVIDE (_etext = .)
                [!provide]                        PROVIDE (etext = .)

.rela.dyn       0x00028304        0x0
 .rela.sdata.heap_end
                0x00028304        0x0 /tmp/ccIUcI9t.o
 .rela.init     0x00028304        0x0 /tmp/ccIUcI9t.o
 .rela.text.exit
                0x00028304        0x0 /tmp/ccIUcI9t.o
 .rela.text._vfprintf_r
                0x00028304        0x0 /tmp/ccIUcI9t.o
 .rela.text._svfprintf_r
                0x00028304        0x0 /tmp/ccIUcI9t.o
 .rela.text.__ssvfscanf_r
                0x00028304        0x0 /tmp/ccIUcI9t.o
 .rela.text.__svfscanf_r
                0x00028304        0x0 /tmp/ccIUcI9t.o

.data           0x20000000    0x1c110 load address 0x00028304
                0x20000000                        __DATA_BEGIN__ = .
 *(.data .data.* .gnu.linkonce.d.*)
 .data.st_notify.11
                0x20000000       0x10 /tmp/ccIUcI9t.o
 .data.st_notify.12
                0x20000010       0x10 /tmp/ccIUcI9t.o
 .data.thintriangle_guy
                0x20000020       0x30 /tmp/ccIUcI9t.o
                0x20000020                thintriangle_guy
 .data.cheat_player_arrow
                0x20000050      0x100 /tmp/ccIUcI9t.o
                0x20000050                cheat_player_arrow
 .data.player_arrow
                0x20000150       0x70 /tmp/ccIUcI9t.o
                0x20000150                player_arrow
 .data.weaponinfo
                0x200001c0       0xd8 /tmp/ccmkV7yr.o
                0x200001c0                weaponinfo
 .data.endmsg   0x20000298       0x5c /tmp/ccgU7jdx.o
                0x20000298                endmsg
 .data.castorder
                0x200002f4       0x90 /tmp/ccjHmZfx.o
                0x200002f4                castorder
 .data.cpars    0x20000384       0x80 /tmp/ccUtj4vl.o
                0x20000384                cpars
 .data.pars     0x20000404       0xa0 /tmp/ccUtj4vl.o
                0x20000404                pars
 .data.angleturn
                0x200004a4        0xc /tmp/ccUtj4vl.o
                0x200004a4                angleturn
 .data.frenchKeyMap
                0x200004b0       0x80 /tmp/ccEARxVL.o
                0x200004b0                frenchKeyMap
 .data.mapnames2
                0x20000530       0x80 /tmp/ccEARxVL.o
                0x20000530                mapnames2
 .data.mapnames
                0x200005b0       0xb4 /tmp/ccEARxVL.o
                0x200005b0                mapnames
 .data.player_names
                0x20000664       0x10 /tmp/ccEARxVL.o
                0x20000664                player_names
 .data.chat_macros
                0x20000674       0x28 /tmp/ccEARxVL.o
                0x20000674                chat_macros
 .data.mobjinfo
                0x2000069c     0x313c /tmp/ccmjtV4p.o
                0x2000069c                mobjinfo
 .data.states   0x200037d8     0x69c4 /tmp/ccmjtV4p.o
                0x200037d8                states
 .data.sprnames
                0x2000a19c      0x22c /tmp/ccmjtV4p.o
                0x2000a19c                sprnames
 .data.quitsounds2
                0x2000a3c8       0x20 /tmp/ccfLgswY.o
                0x2000a3c8                quitsounds2
 .data.quitsounds
                0x2000a3e8       0x20 /tmp/ccfLgswY.o
                0x2000a3e8                quitsounds
 .data.msgNames
                0x2000a408       0x12 /tmp/ccfLgswY.o
                0x2000a408                msgNames
 *fill*         0x2000a41a        0x2 
 .data.detailNames
                0x2000a41c       0x12 /tmp/ccfLgswY.o
                0x2000a41c                detailNames
 *fill*         0x2000a42e        0x2 
 .data.SaveDef  0x2000a430       0x18 /tmp/ccfLgswY.o
                0x2000a430                SaveDef
 .data.SaveMenu
                0x2000a448       0x78 /tmp/ccfLgswY.o
                0x2000a448                SaveMenu
 .data.LoadDef  0x2000a4c0       0x18 /tmp/ccfLgswY.o
                0x2000a4c0                LoadDef
 .data.LoadMenu
                0x2000a4d8       0x78 /tmp/ccfLgswY.o
                0x2000a4d8                LoadMenu
 .data.SoundDef
                0x2000a550       0x18 /tmp/ccfLgswY.o
                0x2000a550                SoundDef
 .data.SoundMenu
                0x2000a568       0x50 /tmp/ccfLgswY.o
                0x2000a568                SoundMenu
 .data.ReadDef2
                0x2000a5b8       0x18 /tmp/ccfLgswY.o
                0x2000a5b8                ReadDef2
 .data.ReadMenu2
                0x2000a5d0       0x14 /tmp/ccfLgswY.o
                0x2000a5d0                ReadMenu2
 .data.ReadDef1
                0x2000a5e4       0x18 /tmp/ccfLgswY.o
                0x2000a5e4                ReadDef1
 .data.ReadMenu1
                0x2000a5fc       0x14 /tmp/ccfLgswY.o
                0x2000a5fc                ReadMenu1
 .data.OptionsDef
                0x2000a610       0x18 /tmp/ccfLgswY.o
                0x2000a610                OptionsDef
 .data.OptionsMenu
                0x2000a628       0xa0 /tmp/ccfLgswY.o
                0x2000a628                OptionsMenu
 .data.NewDef   0x2000a6c8       0x18 /tmp/ccfLgswY.o
                0x2000a6c8                NewDef
 .data.NewGameMenu
                0x2000a6e0       0x64 /tmp/ccfLgswY.o
                0x2000a6e0                NewGameMenu
 .data.EpiDef   0x2000a744       0x18 /tmp/ccfLgswY.o
                0x2000a744                EpiDef
 .data.EpisodeMenu
                0x2000a75c       0x50 /tmp/ccfLgswY.o
                0x2000a75c                EpisodeMenu
 .data.MainDef  0x2000a7ac       0x18 /tmp/ccfLgswY.o
                0x2000a7ac                MainDef
 .data.MainMenu
                0x2000a7c4       0x78 /tmp/ccfLgswY.o
                0x2000a7c4                MainMenu
 .data.skullName
                0x2000a83c       0x12 /tmp/ccfLgswY.o
                0x2000a83c                skullName
 *fill*         0x2000a84e        0x2 
 .data.gammamsg
                0x2000a850       0x82 /tmp/ccfLgswY.o
                0x2000a850                gammamsg
 *fill*         0x2000a8d2        0x2 
 .data.defaults
                0x2000a8d4      0x2e4 /tmp/ccUIbcSk.o
                0x2000a8d4                defaults
 .data.rndtable
                0x2000abb8      0x100 /tmp/ccvDkeA0.o
                0x2000abb8                rndtable
 .data.yspeed   0x2000acb8       0x20 /tmp/ccqpieuX.o
                0x2000acb8                yspeed
 .data.xspeed   0x2000acd8       0x20 /tmp/ccqpieuX.o
                0x2000acd8                xspeed
 .data.diags    0x2000acf8       0x10 /tmp/ccqpieuX.o
                0x2000acf8                diags
 .data.opposite
                0x2000ad08       0x24 /tmp/ccqpieuX.o
                0x2000ad08                opposite
 .data.clipammo
                0x2000ad2c       0x10 /tmp/cc37mN0l.o
                0x2000ad2c                clipammo
 .data.maxammo  0x2000ad3c       0x10 /tmp/cc37mN0l.o
                0x2000ad3c                maxammo
 .data.animdefs
                0x2000ad4c      0x284 /tmp/ccVvVkCG.o
                0x2000ad4c                animdefs
 .data.alphSwitchList
                0x2000afd0      0x334 /tmp/ccPJzS57.o
                0x2000afd0                alphSwitchList
 .data.checkcoord
                0x2000b304       0xc0 /tmp/ccvMH7AX.o
                0x2000b304                checkcoord
 .data.fuzzoffset
                0x2000b3c4       0xc8 /tmp/ccwKsAYB.o
                0x2000b3c4                fuzzoffset
 .data.cheat_powerup
                0x2000b48c       0x38 /tmp/ccmkZrYQ.o
                0x2000b48c                cheat_powerup
 .data.cheat_clev_seq
                0x2000b4c4        0xa /tmp/ccmkZrYQ.o
                0x2000b4c4                cheat_clev_seq
 *fill*         0x2000b4ce        0x2 
 .data.cheat_powerup_seq
                0x2000b4d0       0x46 /tmp/ccmkZrYQ.o
                0x2000b4d0                cheat_powerup_seq
 *fill*         0x2000b516        0x2 
 .data.cheat_noclip_seq
                0x2000b518        0xb /tmp/ccmkZrYQ.o
                0x2000b518                cheat_noclip_seq
 *fill*         0x2000b523        0x1 
 .data.cheat_choppers_seq
                0x2000b524        0xb /tmp/ccmkZrYQ.o
                0x2000b524                cheat_choppers_seq
 *fill*         0x2000b52f        0x1 
 .data.cheat_mus_seq
                0x2000b530        0x9 /tmp/ccmkZrYQ.o
                0x2000b530                cheat_mus_seq
 *fill*         0x2000b539        0x3 
 .data.tantoangle
                0x2000b53c     0x2004 /tmp/ccTxiJKs.o
                0x2000b53c                tantoangle
 .data.finesine
                0x2000d540     0xa000 /tmp/ccTxiJKs.o
                0x2000d540                finesine
 .data.finetangent
                0x20017540     0x4000 /tmp/ccTxiJKs.o
                0x20017540                finetangent
 .data.gammatable
                0x2001b540      0x500 /tmp/ccGmmR0A.o
                0x2001b540                gammatable
 .data.epsd2animinfo
                0x2001ba40      0x150 /tmp/ccUXxFQp.o
 .data.epsd1animinfo
                0x2001bb90      0x1f8 /tmp/ccUXxFQp.o
 .data.epsd0animinfo
                0x2001bd88      0x230 /tmp/ccUXxFQp.o
 .data.fds      0x2001bfb8      0x100 /tmp/cc9bKNsH.o
 .data.__sglue  0x2001c0b8        0xc /prog/riscv/lib/gcc/riscv64-unknown-elf/14.2.0/../../../../riscv64-unknown-elf/lib/rv32im_zicsr/ilp32/libc_nano.a(libc_a-findfp.o)
                0x2001c0b8                __sglue
 .data._impure_data
                0x2001c0c4       0x4c /prog/riscv/lib/gcc/riscv64-unknown-elf/14.2.0/../../../../riscv64-unknown-elf/lib/rv32im_zicsr/ilp32/libc_nano.a(libc_a-impure.o)
                0x2001c0c4                _impure_data

.sdata          0x2001c110      0x120 load address 0x00044414
                0x2001c110                        __SDATA_BEGIN__ = .
 *(.srodata.cst16)
 *(.srodata.cst8)
 *(.srodata.cst4)
 *(.srodata.cst2)
 *(.srodata .srodata.*)
 .srodata.destination_keys.2
                0x2001c110        0x4 /tmp/ccEARxVL.o
 *(.sdata .sdata.* .gnu.linkonce.s.*)
 .sdata.lastepisode.9
                0x2001c114        0x4 /tmp/ccIUcI9t.o
 .sdata.lastlevel.10
                0x2001c118        0x4 /tmp/ccIUcI9t.o
 .sdata.stopped
                0x2001c11c        0x4 /tmp/ccIUcI9t.o
 .sdata.cheat_amap
                0x2001c120        0x8 /tmp/ccIUcI9t.o
 .sdata.cheat_amap_seq
                0x2001c128        0x5 /tmp/ccIUcI9t.o
 *fill*         0x2001c12d        0x3 
 .sdata.followplayer
                0x2001c130        0x4 /tmp/ccIUcI9t.o
 .sdata.scale_mtof
                0x2001c134        0x4 /tmp/ccIUcI9t.o
 .sdata.gamemode
                0x2001c138        0x4 /tmp/cc4ktsDS.o
                0x2001c138                gamemode
 .sdata.c6text  0x2001c13c        0x4 /tmp/ccjHmZfx.o
                0x2001c13c                c6text
 .sdata.c5text  0x2001c140        0x4 /tmp/ccjHmZfx.o
                0x2001c140                c5text
 .sdata.c4text  0x2001c144        0x4 /tmp/ccjHmZfx.o
                0x2001c144                c4text
 .sdata.c3text  0x2001c148        0x4 /tmp/ccjHmZfx.o
                0x2001c148                c3text
 .sdata.c2text  0x2001c14c        0x4 /tmp/ccjHmZfx.o
                0x2001c14c                c2text
 .sdata.c1text  0x2001c150        0x4 /tmp/ccjHmZfx.o
                0x2001c150                c1text
 .sdata.e4text  0x2001c154        0x4 /tmp/ccjHmZfx.o
                0x2001c154                e4text
 .sdata.e3text  0x2001c158        0x4 /tmp/ccjHmZfx.o
                0x2001c158                e3text
 .sdata.e2text  0x2001c15c        0x4 /tmp/ccjHmZfx.o
                0x2001c15c                e2text
 .sdata.e1text  0x2001c160        0x4 /tmp/ccjHmZfx.o
                0x2001c160                e1text
 .sdata.joybuttons
                0x2001c164        0x4 /tmp/ccUtj4vl.o
                0x2001c164                joybuttons
 .sdata.mousebuttons
                0x2001c168        0x4 /tmp/ccUtj4vl.o
                0x2001c168                mousebuttons
 .sdata.sidemove
                0x2001c16c        0x8 /tmp/ccUtj4vl.o
                0x2001c16c                sidemove
 .sdata.forwardmove
                0x2001c174        0x8 /tmp/ccUtj4vl.o
                0x2001c174                forwardmove
 .sdata.precache
                0x2001c17c        0x4 /tmp/ccUtj4vl.o
                0x2001c17c                precache
 .sdata.firsttime
                0x2001c180        0x4 /tmp/ccKIE5CM.o
 .sdata.TRACEANGLE
                0x2001c184        0x4 /tmp/ccqpieuX.o
                0x2001c184                TRACEANGLE
 .sdata.finecosine
                0x2001c188        0x4 /tmp/cc5i2vm6.o
                0x2001c188                finecosine
 .sdata.validcount
                0x2001c18c        0x4 /tmp/cc5i2vm6.o
                0x2001c18c                validcount
 .sdata.largeammo.0
                0x2001c190        0x4 /tmp/ccmkZrYQ.o
 .sdata.lastattackdown.1
                0x2001c194        0x4 /tmp/ccmkZrYQ.o
 .sdata.oldhealth.4
                0x2001c198        0x4 /tmp/ccmkZrYQ.o
 .sdata.st_stopped
                0x2001c19c        0x4 /tmp/ccmkZrYQ.o
 .sdata.cheat_mypos
                0x2001c1a0        0x8 /tmp/ccmkZrYQ.o
                0x2001c1a0                cheat_mypos
 .sdata.cheat_clev
                0x2001c1a8        0x8 /tmp/ccmkZrYQ.o
                0x2001c1a8                cheat_clev
 .sdata.cheat_choppers
                0x2001c1b0        0x8 /tmp/ccmkZrYQ.o
                0x2001c1b0                cheat_choppers
 .sdata.cheat_commercial_noclip
                0x2001c1b8        0x8 /tmp/ccmkZrYQ.o
                0x2001c1b8                cheat_commercial_noclip
 .sdata.cheat_noclip
                0x2001c1c0        0x8 /tmp/ccmkZrYQ.o
                0x2001c1c0                cheat_noclip
 .sdata.cheat_ammonokey
                0x2001c1c8        0x8 /tmp/ccmkZrYQ.o
                0x2001c1c8                cheat_ammonokey
 .sdata.cheat_ammo
                0x2001c1d0        0x8 /tmp/ccmkZrYQ.o
                0x2001c1d0                cheat_ammo
 .sdata.cheat_god
                0x2001c1d8        0x8 /tmp/ccmkZrYQ.o
                0x2001c1d8                cheat_god
 .sdata.cheat_mus
                0x2001c1e0        0x8 /tmp/ccmkZrYQ.o
                0x2001c1e0                cheat_mus
 .sdata.cheat_mypos_seq
                0x2001c1e8        0x8 /tmp/ccmkZrYQ.o
                0x2001c1e8                cheat_mypos_seq
 .sdata.cheat_commercial_noclip_seq
                0x2001c1f0        0x7 /tmp/ccmkZrYQ.o
                0x2001c1f0                cheat_commercial_noclip_seq
 *fill*         0x2001c1f7        0x1 
 .sdata.cheat_ammonokey_seq
                0x2001c1f8        0x5 /tmp/ccmkZrYQ.o
                0x2001c1f8                cheat_ammonokey_seq
 *fill*         0x2001c1fd        0x3 
 .sdata.cheat_ammo_seq
                0x2001c200        0x6 /tmp/ccmkZrYQ.o
                0x2001c200                cheat_ammo_seq
 *fill*         0x2001c206        0x2 
 .sdata.cheat_god_seq
                0x2001c208        0x6 /tmp/ccmkZrYQ.o
                0x2001c208                cheat_god_seq
 *fill*         0x2001c20e        0x2 
 .sdata.st_oldhealth
                0x2001c210        0x4 /tmp/ccmkZrYQ.o
 .sdata.oldgamestate.5
                0x2001c214        0x4 /tmp/ccp2R3Ps.o
 .sdata.wipegamestate
                0x2001c218        0x4 /tmp/ccp2R3Ps.o
                0x2001c218                wipegamestate
 .sdata.basedefault
                0x2001c21c        0x7 /tmp/ccp2R3Ps.o
                0x2001c21c                basedefault
 *fill*         0x2001c223        0x1 
 .sdata.singletics
                0x2001c224        0x4 /tmp/ccp2R3Ps.o
                0x2001c224                singletics
 .sdata.heap_end
                0x2001c228        0x4 /tmp/cc9bKNsH.o
 .sdata._impure_ptr
                0x2001c22c        0x4 /prog/riscv/lib/gcc/riscv64-unknown-elf/14.2.0/../../../../riscv64-unknown-elf/lib/rv32im_zicsr/ilp32/libc_nano.a(libc_a-impure.o)
                0x2001c22c                _impure_ptr
                0x2001c230                        _edata = .
                [!provide]                        PROVIDE (edata = .)
                0x2001c230                        . = .

.rodata         0x00044534   0xbdb810
 *(.rodata .rodata.* .gnu.linkonce.r.*)
 .rodata.AM_loadPics.str1.4
                0x00044534     0x558a /tmp/ccIUcI9t.o
                                  0x9 (size before relaxing)
 .rodata.AM_unloadPics.str1.4
                0x00049abe       0x17 /tmp/ccIUcI9t.o
 .rodata.AM_Responder.str1.4
                0x00049abe       0x5a /tmp/ccIUcI9t.o
 .rodata.AM_drawFline.str1.4
                0x00049abe        0xa /tmp/ccIUcI9t.o
 *fill*         0x00049abe        0x2 
 .rodata.their_colors.0
                0x00049ac0       0x10 /tmp/ccIUcI9t.o
 .rodata.HSendPacket.str1.4
                0x00049ad0       0x22 /tmp/ccpgEVRG.o
 .rodata.GetPackets.str1.4
                0x00049ad0       0x31 /tmp/ccpgEVRG.o
 .rodata.NetUpdate.str1.4
                0x00049ad0       0x2b /tmp/ccpgEVRG.o
 .rodata.CheckAbort.str1.4
                0x00049ad0       0x26 /tmp/ccpgEVRG.o
 .rodata.D_ArbitrateNetStart.str1.4
                0x00049ad0       0x77 /tmp/ccpgEVRG.o
 .rodata.D_CheckNetGame.str1.4
                0x00049ad0       0x74 /tmp/ccpgEVRG.o
 .rodata.TryRunTics.str1.4
                0x00049ad0       0x2f /tmp/ccpgEVRG.o
 .rodata.str1.4
                0x00049ad0      0x4bb /tmp/ccgU7jdx.o
 .rodata.F_StartFinale.str1.4
                0x00049ad0       0x5b /tmp/ccjHmZfx.o
 .rodata.F_CastDrawer.str1.4
                0x00049ad0        0x9 /tmp/ccjHmZfx.o
 .rodata.F_BunnyScroll.str1.4
                0x00049ad0       0x1e /tmp/ccjHmZfx.o
 .rodata.F_Drawer.str1.4
                0x00049ad0       0x23 /tmp/ccjHmZfx.o
 .rodata.str1.4
                0x00049ad0     0x1ebd /tmp/ccjHmZfx.o
 .rodata.wipes.0
                0x00049ad0       0x18 /tmp/cccIdlRp.o
 .rodata.G_DoLoadLevel.str1.4
                0x00049ae8       0x1d /tmp/ccUtj4vl.o
 .rodata.G_DeathMatchSpawnPlayer.str1.4
                0x00049ae8       0x25 /tmp/ccUtj4vl.o
 .rodata.G_SecretExitLevel.str1.4
                0x00049ae8        0x6 /tmp/ccUtj4vl.o
 .rodata.G_DoSaveGame.str1.4
                0x00049ae8       0x40 /tmp/ccUtj4vl.o
 .rodata.G_InitNew.str1.4
                0x00049ae8        0x5 /tmp/ccUtj4vl.o
 .rodata.G_DoLoadGame.str1.4
                0x00049ae8        0xd /tmp/ccUtj4vl.o
 .rodata.G_DoPlayDemo.str1.4
                0x00049ae8       0x28 /tmp/ccUtj4vl.o
 .rodata.G_CheckDemoStatus.str1.4
                0x00049ae8       0x4d /tmp/ccUtj4vl.o
 .rodata.G_Ticker.str1.4
                0x00049ae8       0x41 /tmp/ccUtj4vl.o
 .rodata.G_Ticker
                0x00049ae8       0x24 /tmp/ccUtj4vl.o
 .rodata.HU_Init.str1.4
                0x00049b0c        0xa /tmp/ccEARxVL.o
 .rodata.HU_queueChatChar.str1.4
                0x00049b0c       0x11 /tmp/ccEARxVL.o
 .rodata.HU_Responder.str1.4
                0x00049b0c       0x62 /tmp/ccEARxVL.o
 .rodata.french_shiftxform
                0x00049b0c       0x80 /tmp/ccEARxVL.o
                0x00049b0c                french_shiftxform
 .rodata.str1.4
                0x00049b8c      0xc6c /tmp/ccEARxVL.o
 .rodata.str1.4
                0x00049b8c      0x44d /tmp/ccmjtV4p.o
 .rodata.M_ChangeMessages.str1.4
                0x00049b8c       0x1c /tmp/ccfLgswY.o
 .rodata.M_DrawMainMenu.str1.4
                0x00049b8c        0x7 /tmp/ccfLgswY.o
 .rodata.M_DrawNewGame.str1.4
                0x00049b8c       0x10 /tmp/ccfLgswY.o
 .rodata.M_DrawEpisode.str1.4
                0x00049b8c        0x9 /tmp/ccfLgswY.o
 .rodata.M_LoadSelect.str1.4
                0x00049b8c       0x32 /tmp/ccfLgswY.o
 .rodata.M_SaveSelect.str1.4
                0x00049b8c        0xb /tmp/ccfLgswY.o
 .rodata.M_ChangeDetail.str1.4
                0x00049b8c       0x26 /tmp/ccfLgswY.o
 .rodata.M_DrawReadThis1.str1.4
                0x00049b8c        0xe /tmp/ccfLgswY.o
 .rodata.M_DrawReadThis2.str1.4
                0x00049b8c        0xe /tmp/ccfLgswY.o
 .rodata.M_DrawSaveLoadBorder.str1.4
                0x00049b8c       0x21 /tmp/ccfLgswY.o
 .rodata.M_DrawThermo.str1.4
                0x00049b8c       0x2d /tmp/ccfLgswY.o
 .rodata.M_DrawSound.str1.4
                0x00049b8c        0x7 /tmp/ccfLgswY.o
 .rodata.M_DrawOptions.str1.4
                0x00049b8c        0x9 /tmp/ccfLgswY.o
 .rodata.M_QuickLoad.str1.4
                0x00049b8c       0xaa /tmp/ccfLgswY.o
 .rodata.M_EndGame.str1.4
                0x00049b8c       0x5e /tmp/ccfLgswY.o
 .rodata.M_QuitDOOM.str1.4
                0x00049b8c       0x16 /tmp/ccfLgswY.o
 .rodata.M_ChooseSkill.str1.4
                0x00049b8c       0x48 /tmp/ccfLgswY.o
 .rodata.M_DrawLoad.str1.4
                0x00049b8c        0x8 /tmp/ccfLgswY.o
 .rodata.M_DrawSave.str1.4
                0x00049b8c        0xa /tmp/ccfLgswY.o
 .rodata.M_LoadGame.str1.4
                0x00049b8c       0x35 /tmp/ccfLgswY.o
 .rodata.M_SaveGame.str1.4
                0x00049b8c       0x34 /tmp/ccfLgswY.o
 .rodata.M_QuickSave.str1.4
                0x00049b8c       0x35 /tmp/ccfLgswY.o
 .rodata.M_Responder.str1.4
                0x00049b8c        0x8 /tmp/ccfLgswY.o
 .rodata.M_Responder
                0x00049b8c       0x74 /tmp/ccfLgswY.o
 .rodata.M_NewGame.str1.4
                0x00049c00       0x42 /tmp/ccfLgswY.o
 .rodata.M_Episode.str1.4
                0x00049c00       0x8a /tmp/ccfLgswY.o
 .rodata.M_ReadFile.str1.4
                0x00049c00       0x16 /tmp/ccUIbcSk.o
 .rodata.M_SaveDefaults.str1.4
                0x00049c00       0x16 /tmp/ccUIbcSk.o
 .rodata.M_LoadDefaults.str1.4
                0x00049c00       0x3b /tmp/ccUIbcSk.o
 .rodata.M_ScreenShot.str1.4
                0x00049c00       0x44 /tmp/ccUIbcSk.o
 .rodata.str1.4
                0x00049c00      0x274 /tmp/ccUIbcSk.o
 .rodata.T_MoveCeiling
                0x00049c00       0x18 /tmp/cclH31lB.o
 .rodata.EV_DoCeiling
                0x00049c18       0x18 /tmp/cclH31lB.o
 .rodata.T_VerticalDoor
                0x00049c30       0x20 /tmp/cc3mgFQP.o
 .rodata.EV_DoDoor
                0x00049c50       0x20 /tmp/cc3mgFQP.o
 .rodata.EV_DoLockedDoor.str1.4
                0x00049c70       0x86 /tmp/cc3mgFQP.o
 .rodata.EV_VerticalDoor.str1.4
                0x00049c70       0x75 /tmp/cc3mgFQP.o
 .rodata.P_Move.str1.4
                0x00049c70       0x16 /tmp/ccqpieuX.o
 .rodata.P_NewChaseDir.str1.4
                0x00049c70       0x25 /tmp/ccqpieuX.o
 .rodata.EV_DoFloor
                0x00049c70       0x34 /tmp/cczxoUUx.o
 .rodata.P_GiveAmmo.str1.4
                0x00049ca4       0x18 /tmp/cc37mN0l.o
 .rodata.P_GivePower
                0x00049ca4       0x18 /tmp/cc37mN0l.o
 .rodata.P_TouchSpecialThing.str1.4
                0x00049cbc      0x3ff /tmp/cc37mN0l.o
 .rodata.P_TouchSpecialThing
                0x00049cbc       0x9c /tmp/cc37mN0l.o
 .rodata.PTR_SlideTraverse.str1.4
                0x00049d58       0x1f /tmp/cckymBR5.o
 .rodata.P_SpawnMapThing.str1.4
                0x00049d58       0x2d /tmp/ccj2wwR0.o
 .rodata.P_AddActivePlat.str1.4
                0x00049d58       0x20 /tmp/ccvd2S5m.o
 .rodata.EV_DoPlat
                0x00049d58       0x14 /tmp/ccvd2S5m.o
 .rodata.P_RemoveActivePlat.str1.4
                0x00049d6c       0x25 /tmp/ccvd2S5m.o
 .rodata.P_UnArchiveThinkers.str1.4
                0x00049d6c       0x1e /tmp/ccmdsAPV.o
 .rodata.P_UnArchiveSpecials.str1.4
                0x00049d6c       0x32 /tmp/ccmdsAPV.o
 .rodata.P_UnArchiveSpecials
                0x00049d6c       0x20 /tmp/ccmdsAPV.o
 .rodata.P_GroupLines.str1.4
                0x00049d8c       0x19 /tmp/cclbtQ5a.o
 .rodata.P_SetupLevel.str1.4
                0x00049d8c        0xe /tmp/cclbtQ5a.o
 .rodata.P_InitPicAnims.str1.4
                0x00049d8c       0x28 /tmp/ccVvVkCG.o
 .rodata.P_FindNextHighestFloor.str1.4
                0x00049d8c       0x2c /tmp/ccVvVkCG.o
 .rodata.P_CrossSpecialLine
                0x00049d8c      0x230 /tmp/ccVvVkCG.o
 .rodata.P_PlayerInSpecialSector.str1.4
                0x00049fbc       0x2c /tmp/ccVvVkCG.o
 .rodata.P_PlayerInSpecialSector
                0x00049fbc       0x34 /tmp/ccVvVkCG.o
 .rodata.P_SpawnSpecials.str1.4
                0x00049ff0        0xf /tmp/ccVvVkCG.o
 .rodata.P_SpawnSpecials
                0x00049ff0       0x44 /tmp/ccVvVkCG.o
 .rodata.P_StartButton.str1.4
                0x0004a034       0x25 /tmp/ccPJzS57.o
 .rodata.P_UseSpecialLine
                0x0004a034      0x20c /tmp/ccPJzS57.o
 .rodata.R_GenerateComposite.str1.4
                0x0004a240       0x17 /tmp/cccIYygE.o
 .rodata.R_GenerateLookup.str1.4
                0x0004a240       0x55 /tmp/cccIYygE.o
 .rodata.R_InitTextures.str1.4
                0x0004a240       0xac /tmp/cccIYygE.o
 .rodata.R_InitFlats.str1.4
                0x0004a240        0xe /tmp/cccIYygE.o
 .rodata.R_InitColormaps.str1.4
                0x0004a240        0x9 /tmp/cccIYygE.o
 .rodata.R_InitData.str1.4
                0x0004a240       0x3b /tmp/cccIYygE.o
 .rodata.R_FlatNumForName.str1.4
                0x0004a240       0x1f /tmp/cccIYygE.o
 .rodata.R_TextureNumForName.str1.4
                0x0004a240       0x22 /tmp/cccIYygE.o
 .rodata.R_FillBackScreen.str1.4
                0x0004a240       0x40 /tmp/ccwKsAYB.o
 .rodata.R_Init.str1.4
                0x0004a240       0x7e /tmp/cc5i2vm6.o
 .rodata.R_FindPlane.str1.4
                0x0004a240       0x1f /tmp/ccf0NvUc.o
 .rodata.R_DrawPlanes.str1.4
                0x0004a240       0x18 /tmp/ccf0NvUc.o
 .rodata.R_InstallSpriteLump.str1.4
                0x0004a240       0xf2 /tmp/ccUvJ9IP.o
 .rodata.R_InitSpriteDefs.str1.4
                0x0004a240       0x67 /tmp/ccUvJ9IP.o
 .rodata.STlib_init.str1.4
                0x0004a240        0x9 /tmp/cchLfgF1.o
 .rodata.STlib_drawNum.str1.4
                0x0004a240       0x19 /tmp/cchLfgF1.o
 .rodata.STlib_updateMultIcon.str1.4
                0x0004a240       0x1d /tmp/cchLfgF1.o
 .rodata.STlib_updateBinIcon.str1.4
                0x0004a240       0x1c /tmp/cchLfgF1.o
 .rodata.ST_Responder.str1.4
                0x0004a240      0x13e /tmp/ccmkZrYQ.o
 .rodata.ST_loadGraphics.str1.4
                0x0004a240       0xad /tmp/ccmkZrYQ.o
 .rodata.ST_loadData.str1.4
                0x0004a240        0x8 /tmp/ccmkZrYQ.o
 .rodata.WI_drawOnLnode.str1.4
                0x0004a240       0x22 /tmp/ccUXxFQp.o
 .rodata.WI_updateNetgameStats
                0x0004a240       0x24 /tmp/ccUXxFQp.o
 .rodata.WI_updateStats
                0x0004a264       0x24 /tmp/ccUXxFQp.o
 .rodata.WI_loadData.str1.4
                0x0004a288      0x103 /tmp/ccUXxFQp.o
 .rodata.WI_unloadData.str1.4
                0x0004a288       0x19 /tmp/ccUXxFQp.o
 .rodata.anims  0x0004a288       0x10 /tmp/ccUXxFQp.o
 .rodata.NUMANIMS
                0x0004a298       0x10 /tmp/ccUXxFQp.o
 .rodata.lnodes
                0x0004a2a8      0x120 /tmp/ccUXxFQp.o
 .rodata.filelength.str1.4
                0x0004a3c8        0xf /tmp/cckYeBJT.o
 .rodata.ExtractFileBase.str1.4
                0x0004a3c8       0x1d /tmp/cckYeBJT.o
 .rodata.W_AddFile.str1.4
                0x0004a3c8       0x7a /tmp/cckYeBJT.o
 .rodata.W_Reload.str1.4
                0x0004a3c8       0x1b /tmp/cckYeBJT.o
 .rodata.W_InitMultipleFiles.str1.4
                0x0004a3c8       0x38 /tmp/cckYeBJT.o
 .rodata.W_GetNumForName.str1.4
                0x0004a3c8       0x1f /tmp/cckYeBJT.o
 .rodata.W_LumpLength.str1.4
                0x0004a3c8       0x1d /tmp/cckYeBJT.o
 .rodata.W_ReadLump.str1.4
                0x0004a3c8       0x66 /tmp/cckYeBJT.o
 .rodata.W_CacheLumpNum.str1.4
                0x0004a3c8       0x36 /tmp/cckYeBJT.o
 .rodata.Z_Free.str1.4
                0x0004a3c8       0x27 /tmp/ccj4PUoF.o
 .rodata.Z_Malloc.str1.4
                0x0004a3c8       0x5f /tmp/ccj4PUoF.o
 .rodata.Z_CheckHeap.str1.4
                0x0004a3c8       0x9a /tmp/ccj4PUoF.o
 .rodata.Z_ChangeTag2.str1.4
                0x0004a3c8       0x62 /tmp/ccj4PUoF.o
 .rodata.D_Display.str1.4
                0x0004a3c8       0x10 /tmp/ccp2R3Ps.o
 .rodata.D_DoAdvanceDemo.str1.4
                0x0004a3c8       0x3a /tmp/ccp2R3Ps.o
 .rodata.D_DoAdvanceDemo
                0x0004a3c8       0x1c /tmp/ccp2R3Ps.o
 .rodata.D_DoomLoop.str1.4
                0x0004a3e4       0x83 /tmp/ccp2R3Ps.o
 .rodata.IdentifyVersion.str1.4
                0x0004a3e4        0xc /tmp/ccp2R3Ps.o
 .rodata.D_DoomMain.str1.4
                0x0004a3e4      0x1ff /tmp/ccp2R3Ps.o
 .rodata.I_StartTic.str1.4
                0x0004a3e4       0x1b /tmp/ccA3sui6.o
 .rodata.I_Error.str1.4
                0x0004a3e4        0xa /tmp/ccA3sui6.o
 .rodata.I_SetPalette.str1.4
                0x0004a3e4       0x2e /tmp/ccx6M4gp.o
 .rodata.I_FinishUpdate.str1.4
                0x0004a3e4        0x4 /tmp/ccx6M4gp.o
 .rodata._sbrk.str1.4
                0x0004a3e4       0x17 /tmp/cc9bKNsH.o
 .rodata._open.str1.4
                0x0004a3e4       0x21 /tmp/cc9bKNsH.o
 .rodata._stat.str1.4
                0x0004a3e4       0x28 /tmp/cc9bKNsH.o
 .rodata._fstat.str1.4
                0x0004a3e4       0x21 /tmp/cc9bKNsH.o
 .rodata.fs     0x0004a3e4       0x18 /tmp/cc9bKNsH.o
 .rodata._ctype_
                0x0004a3fc      0x101 /prog/riscv/lib/gcc/riscv64-unknown-elf/14.2.0/../../../../riscv64-unknown-elf/lib/rv32im_zicsr/ilp32/libc_nano.a(libc_a-ctype_.o)
                0x0004a3fc                _ctype_
 .rodata._vfprintf_r.str1.4
                0x0004a4fd       0x13 /prog/riscv/lib/gcc/riscv64-unknown-elf/14.2.0/../../../../riscv64-unknown-elf/lib/rv32im_zicsr/ilp32/libc_nano.a(libc_a-nano-vfprintf.o)
 .rodata._printf_i.str1.4
                0x0004a4fd       0x25 /prog/riscv/lib/gcc/riscv64-unknown-elf/14.2.0/../../../../riscv64-unknown-elf/lib/rv32im_zicsr/ilp32/libc_nano.a(libc_a-nano-vfprintf_i.o)
 *fill*         0x0004a4fd        0x3 
 .rodata._printf_i
                0x0004a500       0x58 /prog/riscv/lib/gcc/riscv64-unknown-elf/14.2.0/../../../../riscv64-unknown-elf/lib/rv32im_zicsr/ilp32/libc_nano.a(libc_a-nano-vfprintf_i.o)
 .rodata._svfprintf_r.str1.4
                0x0004a558       0x13 /prog/riscv/lib/gcc/riscv64-unknown-elf/14.2.0/../../../../riscv64-unknown-elf/lib/rv32im_zicsr/ilp32/libc_nano.a(libc_a-nano-svfprintf.o)
 .rodata.__ssvfscanf_r.str1.4
                0x0004a558        0x4 /prog/riscv/lib/gcc/riscv64-unknown-elf/14.2.0/../../../../riscv64-unknown-elf/lib/rv32im_zicsr/ilp32/libc_nano.a(libc_a-nano-svfscanf.o)
 .rodata.__ssvfscanf_r
                0x0004a558       0x84 /prog/riscv/lib/gcc/riscv64-unknown-elf/14.2.0/../../../../riscv64-unknown-elf/lib/rv32im_zicsr/ilp32/libc_nano.a(libc_a-nano-svfscanf.o)
 .rodata.__svfscanf_r.str1.4
                0x0004a5dc        0x4 /prog/riscv/lib/gcc/riscv64-unknown-elf/14.2.0/../../../../riscv64-unknown-elf/lib/rv32im_zicsr/ilp32/libc_nano.a(libc_a-nano-vfscanf.o)
 .rodata.__svfscanf_r
                0x0004a5dc       0x84 /prog/riscv/lib/gcc/riscv64-unknown-elf/14.2.0/../../../../riscv64-unknown-elf/lib/rv32im_zicsr/ilp32/libc_nano.a(libc_a-nano-vfscanf.o)
 .rodata._scanf_i.str1.4
                0x0004a660       0x1e /prog/riscv/lib/gcc/riscv64-unknown-elf/14.2.0/../../../../riscv64-unknown-elf/lib/rv32im_zicsr/ilp32/libc_nano.a(libc_a-nano-vfscanf_i.o)
 .rodata        0x0004a660      0x100 /prog/riscv/lib/gcc/riscv64-unknown-elf/14.2.0/rv32im_zicsr/ilp32/libgcc.a(_clz.o)
                0x0004a660                __clz_tab
                0x0004a760                        miniwad_start = .
 *(.miniwad_rodata)
 .miniwad_rodata
                0x0004a760   0xbd55e4 miniwad.o
                0x0004a760                _binary_miniwad_wad_start
                0x00c1fd44                _binary_miniwad_wad_end
                0x00c1fd44                        miniwad_end = .

.sbss           0x2001c230      0x7ec
                0x2001c230                        __bss_start = .
 *(.dynsbss)
 *(.sbss .sbss.* .gnu.linkonce.sb.*)
 .sbss.fuck.3   0x2001c230        0x4 /tmp/ccIUcI9t.o
 .sbss.bigstate.8
                0x2001c234        0x4 /tmp/ccIUcI9t.o
 .sbss.markpointnum
                0x2001c238        0x4 /tmp/ccIUcI9t.o
 .sbss.plr      0x2001c23c        0x4 /tmp/ccIUcI9t.o
 .sbss.scale_ftom
                0x2001c240        0x4 /tmp/ccIUcI9t.o
 .sbss.f_oldloc
                0x2001c244        0x8 /tmp/ccIUcI9t.o
 .sbss.old_m_y  0x2001c24c        0x4 /tmp/ccIUcI9t.o
 .sbss.old_m_x  0x2001c250        0x4 /tmp/ccIUcI9t.o
 .sbss.old_m_h  0x2001c254        0x4 /tmp/ccIUcI9t.o
 .sbss.old_m_w  0x2001c258        0x4 /tmp/ccIUcI9t.o
 .sbss.max_scale_mtof
                0x2001c25c        0x4 /tmp/ccIUcI9t.o
 .sbss.min_scale_mtof
                0x2001c260        0x4 /tmp/ccIUcI9t.o
 .sbss.max_h    0x2001c264        0x4 /tmp/ccIUcI9t.o
 .sbss.max_y    0x2001c268        0x4 /tmp/ccIUcI9t.o
 .sbss.max_x    0x2001c26c        0x4 /tmp/ccIUcI9t.o
 .sbss.min_y    0x2001c270        0x4 /tmp/ccIUcI9t.o
 .sbss.min_x    0x2001c274        0x4 /tmp/ccIUcI9t.o
 .sbss.m_h      0x2001c278        0x4 /tmp/ccIUcI9t.o
 .sbss.m_w      0x2001c27c        0x4 /tmp/ccIUcI9t.o
 .sbss.m_y2     0x2001c280        0x4 /tmp/ccIUcI9t.o
 .sbss.m_x2     0x2001c284        0x4 /tmp/ccIUcI9t.o
 .sbss.m_y      0x2001c288        0x4 /tmp/ccIUcI9t.o
 .sbss.m_x      0x2001c28c        0x4 /tmp/ccIUcI9t.o
 .sbss.ftom_zoommul
                0x2001c290        0x4 /tmp/ccIUcI9t.o
 .sbss.mtof_zoommul
                0x2001c294        0x4 /tmp/ccIUcI9t.o
 .sbss.m_paninc
                0x2001c298        0x8 /tmp/ccIUcI9t.o
 .sbss.amclock  0x2001c2a0        0x4 /tmp/ccIUcI9t.o
 .sbss.fb       0x2001c2a4        0x4 /tmp/ccIUcI9t.o
 .sbss.lightlev
                0x2001c2a8        0x4 /tmp/ccIUcI9t.o
 .sbss.f_h      0x2001c2ac        0x4 /tmp/ccIUcI9t.o
 .sbss.f_w      0x2001c2b0        0x4 /tmp/ccIUcI9t.o
 .sbss.f_y      0x2001c2b4        0x4 /tmp/ccIUcI9t.o
 .sbss.f_x      0x2001c2b8        0x4 /tmp/ccIUcI9t.o
 .sbss.automapactive
                0x2001c2bc        0x4 /tmp/ccIUcI9t.o
                0x2001c2bc                automapactive
 .sbss.grid     0x2001c2c0        0x4 /tmp/ccIUcI9t.o
 .sbss.cheating
                0x2001c2c4        0x4 /tmp/ccIUcI9t.o
 .sbss.oldentertics.0
                0x2001c2c8        0x4 /tmp/ccpgEVRG.o
 .sbss.oldnettics
                0x2001c2cc        0x4 /tmp/ccpgEVRG.o
                0x2001c2cc                oldnettics
 .sbss.frameon  0x2001c2d0        0x4 /tmp/ccpgEVRG.o
                0x2001c2d0                frameon
 .sbss.gametime
                0x2001c2d4        0x4 /tmp/ccpgEVRG.o
                0x2001c2d4                gametime
 .sbss.reboundpacket
                0x2001c2d8        0x4 /tmp/ccpgEVRG.o
                0x2001c2d8                reboundpacket
 .sbss.maxsend  0x2001c2dc        0x4 /tmp/ccpgEVRG.o
                0x2001c2dc                maxsend
 .sbss.ticdup   0x2001c2e0        0x4 /tmp/ccpgEVRG.o
                0x2001c2e0                ticdup
 .sbss.skiptics
                0x2001c2e4        0x4 /tmp/ccpgEVRG.o
                0x2001c2e4                skiptics
 .sbss.maketic  0x2001c2e8        0x4 /tmp/ccpgEVRG.o
                0x2001c2e8                maketic
 .sbss.netbuffer
                0x2001c2ec        0x4 /tmp/ccpgEVRG.o
                0x2001c2ec                netbuffer
 .sbss.doomcom  0x2001c2f0        0x4 /tmp/ccpgEVRG.o
                0x2001c2f0                doomcom
 .sbss.modifiedgame
                0x2001c2f4        0x4 /tmp/cc4ktsDS.o
                0x2001c2f4                modifiedgame
 .sbss.language
                0x2001c2f8        0x4 /tmp/cc4ktsDS.o
                0x2001c2f8                language
 .sbss.gamemission
                0x2001c2fc        0x4 /tmp/cc4ktsDS.o
                0x2001c2fc                gamemission
 .sbss.laststage.0
                0x2001c300        0x4 /tmp/ccjHmZfx.o
 .sbss.castattacking
                0x2001c304        0x4 /tmp/ccjHmZfx.o
                0x2001c304                castattacking
 .sbss.castonmelee
                0x2001c308        0x4 /tmp/ccjHmZfx.o
                0x2001c308                castonmelee
 .sbss.castframes
                0x2001c30c        0x4 /tmp/ccjHmZfx.o
                0x2001c30c                castframes
 .sbss.castdeath
                0x2001c310        0x4 /tmp/ccjHmZfx.o
                0x2001c310                castdeath
 .sbss.caststate
                0x2001c314        0x4 /tmp/ccjHmZfx.o
                0x2001c314                caststate
 .sbss.casttics
                0x2001c318        0x4 /tmp/ccjHmZfx.o
                0x2001c318                casttics
 .sbss.castnum  0x2001c31c        0x4 /tmp/ccjHmZfx.o
                0x2001c31c                castnum
 .sbss.finaleflat
                0x2001c320        0x4 /tmp/ccjHmZfx.o
                0x2001c320                finaleflat
 .sbss.finaletext
                0x2001c324        0x4 /tmp/ccjHmZfx.o
                0x2001c324                finaletext
 .sbss.finalecount
                0x2001c328        0x4 /tmp/ccjHmZfx.o
                0x2001c328                finalecount
 .sbss.finalestage
                0x2001c32c        0x4 /tmp/ccjHmZfx.o
                0x2001c32c                finalestage
 .sbss.y        0x2001c330        0x4 /tmp/cccIdlRp.o
 .sbss.wipe_scr
                0x2001c334        0x4 /tmp/cccIdlRp.o
 .sbss.wipe_scr_end
                0x2001c338        0x4 /tmp/cccIdlRp.o
 .sbss.wipe_scr_start
                0x2001c33c        0x4 /tmp/cccIdlRp.o
 .sbss.go       0x2001c340        0x4 /tmp/cccIdlRp.o
 .sbss.defdemoname
                0x2001c344        0x4 /tmp/ccUtj4vl.o
                0x2001c344                defdemoname
 .sbss.d_map    0x2001c348        0x4 /tmp/ccUtj4vl.o
                0x2001c348                d_map
 .sbss.d_episode
                0x2001c34c        0x4 /tmp/ccUtj4vl.o
                0x2001c34c                d_episode
 .sbss.d_skill  0x2001c350        0x4 /tmp/ccUtj4vl.o
                0x2001c350                d_skill
 .sbss.secretexit
                0x2001c354        0x4 /tmp/ccUtj4vl.o
                0x2001c354                secretexit
 .sbss.statcopy
                0x2001c358        0x4 /tmp/ccUtj4vl.o
                0x2001c358                statcopy
 .sbss.bodyqueslot
                0x2001c35c        0x4 /tmp/ccUtj4vl.o
                0x2001c35c                bodyqueslot
 .sbss.savegameslot
                0x2001c360        0x4 /tmp/ccUtj4vl.o
                0x2001c360                savegameslot
 .sbss.joyymove
                0x2001c364        0x4 /tmp/ccUtj4vl.o
                0x2001c364                joyymove
 .sbss.joyxmove
                0x2001c368        0x4 /tmp/ccUtj4vl.o
                0x2001c368                joyxmove
 .sbss.dclicks2
                0x2001c36c        0x4 /tmp/ccUtj4vl.o
                0x2001c36c                dclicks2
 .sbss.dclickstate2
                0x2001c370        0x4 /tmp/ccUtj4vl.o
                0x2001c370                dclickstate2
 .sbss.dclicktime2
                0x2001c374        0x4 /tmp/ccUtj4vl.o
                0x2001c374                dclicktime2
 .sbss.dclicks  0x2001c378        0x4 /tmp/ccUtj4vl.o
                0x2001c378                dclicks
 .sbss.dclickstate
                0x2001c37c        0x4 /tmp/ccUtj4vl.o
                0x2001c37c                dclickstate
 .sbss.dclicktime
                0x2001c380        0x4 /tmp/ccUtj4vl.o
                0x2001c380                dclicktime
 .sbss.mousey   0x2001c384        0x4 /tmp/ccUtj4vl.o
                0x2001c384                mousey
 .sbss.mousex   0x2001c388        0x4 /tmp/ccUtj4vl.o
                0x2001c388                mousex
 .sbss.turnheld
                0x2001c38c        0x4 /tmp/ccUtj4vl.o
                0x2001c38c                turnheld
 .sbss.joybspeed
                0x2001c390        0x4 /tmp/ccUtj4vl.o
                0x2001c390                joybspeed
 .sbss.joybuse  0x2001c394        0x4 /tmp/ccUtj4vl.o
                0x2001c394                joybuse
 .sbss.joybstrafe
                0x2001c398        0x4 /tmp/ccUtj4vl.o
                0x2001c398                joybstrafe
 .sbss.joybfire
                0x2001c39c        0x4 /tmp/ccUtj4vl.o
                0x2001c39c                joybfire
 .sbss.mousebforward
                0x2001c3a0        0x4 /tmp/ccUtj4vl.o
                0x2001c3a0                mousebforward
 .sbss.mousebstrafe
                0x2001c3a4        0x4 /tmp/ccUtj4vl.o
                0x2001c3a4                mousebstrafe
 .sbss.mousebfire
                0x2001c3a8        0x4 /tmp/ccUtj4vl.o
                0x2001c3a8                mousebfire
 .sbss.key_speed
                0x2001c3ac        0x4 /tmp/ccUtj4vl.o
                0x2001c3ac                key_speed
 .sbss.key_strafe
                0x2001c3b0        0x4 /tmp/ccUtj4vl.o
                0x2001c3b0                key_strafe
 .sbss.key_use  0x2001c3b4        0x4 /tmp/ccUtj4vl.o
                0x2001c3b4                key_use
 .sbss.key_fire
                0x2001c3b8        0x4 /tmp/ccUtj4vl.o
                0x2001c3b8                key_fire
 .sbss.key_straferight
                0x2001c3bc        0x4 /tmp/ccUtj4vl.o
                0x2001c3bc                key_straferight
 .sbss.key_strafeleft
                0x2001c3c0        0x4 /tmp/ccUtj4vl.o
                0x2001c3c0                key_strafeleft
 .sbss.key_down
                0x2001c3c4        0x4 /tmp/ccUtj4vl.o
                0x2001c3c4                key_down
 .sbss.key_up   0x2001c3c8        0x4 /tmp/ccUtj4vl.o
                0x2001c3c8                key_up
 .sbss.key_left
                0x2001c3cc        0x4 /tmp/ccUtj4vl.o
                0x2001c3cc                key_left
 .sbss.key_right
                0x2001c3d0        0x4 /tmp/ccUtj4vl.o
                0x2001c3d0                key_right
 .sbss.savebuffer
                0x2001c3d4        0x4 /tmp/ccUtj4vl.o
                0x2001c3d4                savebuffer
 .sbss.singledemo
                0x2001c3d8        0x4 /tmp/ccUtj4vl.o
                0x2001c3d8                singledemo
 .sbss.demoend  0x2001c3dc        0x4 /tmp/ccUtj4vl.o
                0x2001c3dc                demoend
 .sbss.demo_p   0x2001c3e0        0x4 /tmp/ccUtj4vl.o
                0x2001c3e0                demo_p
 .sbss.demobuffer
                0x2001c3e4        0x4 /tmp/ccUtj4vl.o
                0x2001c3e4                demobuffer
 .sbss.netdemo  0x2001c3e8        0x4 /tmp/ccUtj4vl.o
                0x2001c3e8                netdemo
 .sbss.demoplayback
                0x2001c3ec        0x4 /tmp/ccUtj4vl.o
                0x2001c3ec                demoplayback
 .sbss.demorecording
                0x2001c3f0        0x4 /tmp/ccUtj4vl.o
                0x2001c3f0                demorecording
 .sbss.totalsecret
                0x2001c3f4        0x4 /tmp/ccUtj4vl.o
                0x2001c3f4                totalsecret
 .sbss.totalitems
                0x2001c3f8        0x4 /tmp/ccUtj4vl.o
                0x2001c3f8                totalitems
 .sbss.totalkills
                0x2001c3fc        0x4 /tmp/ccUtj4vl.o
                0x2001c3fc                totalkills
 .sbss.levelstarttic
                0x2001c400        0x4 /tmp/ccUtj4vl.o
                0x2001c400                levelstarttic
 .sbss.gametic  0x2001c404        0x4 /tmp/ccUtj4vl.o
                0x2001c404                gametic
 .sbss.displayplayer
                0x2001c408        0x4 /tmp/ccUtj4vl.o
                0x2001c408                displayplayer
 .sbss.consoleplayer
                0x2001c40c        0x4 /tmp/ccUtj4vl.o
                0x2001c40c                consoleplayer
 .sbss.netgame  0x2001c410        0x4 /tmp/ccUtj4vl.o
                0x2001c410                netgame
 .sbss.deathmatch
                0x2001c414        0x4 /tmp/ccUtj4vl.o
                0x2001c414                deathmatch
 .sbss.viewactive
                0x2001c418        0x4 /tmp/ccUtj4vl.o
                0x2001c418                viewactive
 .sbss.starttime
                0x2001c41c        0x4 /tmp/ccUtj4vl.o
                0x2001c41c                starttime
 .sbss.nodrawers
                0x2001c420        0x4 /tmp/ccUtj4vl.o
                0x2001c420                nodrawers
 .sbss.timingdemo
                0x2001c424        0x4 /tmp/ccUtj4vl.o
                0x2001c424                timingdemo
 .sbss.usergame
                0x2001c428        0x4 /tmp/ccUtj4vl.o
                0x2001c428                usergame
 .sbss.sendsave
                0x2001c42c        0x4 /tmp/ccUtj4vl.o
                0x2001c42c                sendsave
 .sbss.sendpause
                0x2001c430        0x4 /tmp/ccUtj4vl.o
                0x2001c430                sendpause
 .sbss.paused   0x2001c434        0x4 /tmp/ccUtj4vl.o
                0x2001c434                paused
 .sbss.gamemap  0x2001c438        0x4 /tmp/ccUtj4vl.o
                0x2001c438                gamemap
 .sbss.gameepisode
                0x2001c43c        0x4 /tmp/ccUtj4vl.o
                0x2001c43c                gameepisode
 .sbss.respawnmonsters
                0x2001c440        0x4 /tmp/ccUtj4vl.o
                0x2001c440                respawnmonsters
 .sbss.gameskill
                0x2001c444        0x4 /tmp/ccUtj4vl.o
                0x2001c444                gameskill
 .sbss.gamestate
                0x2001c448        0x4 /tmp/ccUtj4vl.o
                0x2001c448                gamestate
 .sbss.gameaction
                0x2001c44c        0x4 /tmp/ccUtj4vl.o
                0x2001c44c                gameaction
 .sbss.num_nobrainers.1
                0x2001c450        0x4 /tmp/ccEARxVL.o
 .sbss.altdown.3
                0x2001c454        0x4 /tmp/ccEARxVL.o
 .sbss.shiftdown.4
                0x2001c458        0x4 /tmp/ccEARxVL.o
 .sbss.tail     0x2001c45c        0x4 /tmp/ccEARxVL.o
 .sbss.head     0x2001c460        0x4 /tmp/ccEARxVL.o
 .sbss.shiftxform
                0x2001c464        0x4 /tmp/ccEARxVL.o
                0x2001c464                shiftxform
 .sbss.headsupactive
                0x2001c468        0x4 /tmp/ccEARxVL.o
 .sbss.message_counter
                0x2001c46c        0x4 /tmp/ccEARxVL.o
 .sbss.message_nottobefuckedwith
                0x2001c470        0x4 /tmp/ccEARxVL.o
 .sbss.message_dontfuckwithme
                0x2001c474        0x4 /tmp/ccEARxVL.o
                0x2001c474                message_dontfuckwithme
 .sbss.message_on
                0x2001c478        0x4 /tmp/ccEARxVL.o
 .sbss.chat_dest
                0x2001c47c        0x4 /tmp/ccEARxVL.o
 .sbss.always_off
                0x2001c480        0x4 /tmp/ccEARxVL.o
 .sbss.chat_on  0x2001c484        0x4 /tmp/ccEARxVL.o
                0x2001c484                chat_on
 .sbss.plr      0x2001c488        0x4 /tmp/ccEARxVL.o
 .sbss.myargv   0x2001c48c        0x4 /tmp/cc0sJo8D.o
                0x2001c48c                myargv
 .sbss.myargc   0x2001c490        0x4 /tmp/cc0sJo8D.o
                0x2001c490                myargc
 .sbss.x.0      0x2001c494        0x2 /tmp/ccfLgswY.o
 .sbss.y.1      0x2001c496        0x2 /tmp/ccfLgswY.o
 .sbss.lastx.2  0x2001c498        0x4 /tmp/ccfLgswY.o
 .sbss.mousex.3
                0x2001c49c        0x4 /tmp/ccfLgswY.o
 .sbss.lasty.4  0x2001c4a0        0x4 /tmp/ccfLgswY.o
 .sbss.mousey.5
                0x2001c4a4        0x4 /tmp/ccfLgswY.o
 .sbss.mousewait.6
                0x2001c4a8        0x4 /tmp/ccfLgswY.o
 .sbss.joywait.7
                0x2001c4ac        0x4 /tmp/ccfLgswY.o
 .sbss.epi      0x2001c4b0        0x4 /tmp/ccfLgswY.o
                0x2001c4b0                epi
 .sbss.currentMenu
                0x2001c4b4        0x4 /tmp/ccfLgswY.o
                0x2001c4b4                currentMenu
 .sbss.whichSkull
                0x2001c4b8        0x2 /tmp/ccfLgswY.o
                0x2001c4b8                whichSkull
 .sbss.skullAnimCounter
                0x2001c4ba        0x2 /tmp/ccfLgswY.o
                0x2001c4ba                skullAnimCounter
 .sbss.itemOn   0x2001c4bc        0x2 /tmp/ccfLgswY.o
                0x2001c4bc                itemOn
 *fill*         0x2001c4be        0x2 
 .sbss.menuactive
                0x2001c4c0        0x4 /tmp/ccfLgswY.o
                0x2001c4c0                menuactive
 .sbss.inhelpscreens
                0x2001c4c4        0x4 /tmp/ccfLgswY.o
                0x2001c4c4                inhelpscreens
 .sbss.saveCharIndex
                0x2001c4c8        0x4 /tmp/ccfLgswY.o
                0x2001c4c8                saveCharIndex
 .sbss.saveSlot
                0x2001c4cc        0x4 /tmp/ccfLgswY.o
                0x2001c4cc                saveSlot
 .sbss.saveStringEnter
                0x2001c4d0        0x4 /tmp/ccfLgswY.o
                0x2001c4d0                saveStringEnter
 .sbss.messageRoutine
                0x2001c4d4        0x4 /tmp/ccfLgswY.o
                0x2001c4d4                messageRoutine
 .sbss.messageNeedsInput
                0x2001c4d8        0x4 /tmp/ccfLgswY.o
                0x2001c4d8                messageNeedsInput
 .sbss.messageLastMenuActive
                0x2001c4dc        0x4 /tmp/ccfLgswY.o
                0x2001c4dc                messageLastMenuActive
 .sbss.messageString
                0x2001c4e0        0x4 /tmp/ccfLgswY.o
                0x2001c4e0                messageString
 .sbss.messageToPrint
                0x2001c4e4        0x4 /tmp/ccfLgswY.o
                0x2001c4e4                messageToPrint
 .sbss.quickSaveSlot
                0x2001c4e8        0x4 /tmp/ccfLgswY.o
                0x2001c4e8                quickSaveSlot
 .sbss.screenSize
                0x2001c4ec        0x4 /tmp/ccfLgswY.o
                0x2001c4ec                screenSize
 .sbss.screenblocks
                0x2001c4f0        0x4 /tmp/ccfLgswY.o
                0x2001c4f0                screenblocks
 .sbss.detailLevel
                0x2001c4f4        0x4 /tmp/ccfLgswY.o
                0x2001c4f4                detailLevel
 .sbss.showMessages
                0x2001c4f8        0x4 /tmp/ccfLgswY.o
                0x2001c4f8                showMessages
 .sbss.mouseSensitivity
                0x2001c4fc        0x4 /tmp/ccfLgswY.o
                0x2001c4fc                mouseSensitivity
 .sbss.defaultfile
                0x2001c500        0x4 /tmp/ccUIbcSk.o
                0x2001c500                defaultfile
 .sbss.numdefaults
                0x2001c504        0x4 /tmp/ccUIbcSk.o
                0x2001c504                numdefaults
 .sbss.usejoystick
                0x2001c508        0x4 /tmp/ccUIbcSk.o
                0x2001c508                usejoystick
 .sbss.usemouse
                0x2001c50c        0x4 /tmp/ccUIbcSk.o
                0x2001c50c                usemouse
 .sbss.prndindex
                0x2001c510        0x4 /tmp/ccvDkeA0.o
                0x2001c510                prndindex
 .sbss.rndindex
                0x2001c514        0x4 /tmp/ccvDkeA0.o
                0x2001c514                rndindex
 .sbss.easy.0   0x2001c518        0x4 /tmp/ccqpieuX.o
 .sbss.braintargeton
                0x2001c51c        0x4 /tmp/ccqpieuX.o
                0x2001c51c                braintargeton
 .sbss.numbraintargets
                0x2001c520        0x4 /tmp/ccqpieuX.o
                0x2001c520                numbraintargets
 .sbss.viletryy
                0x2001c524        0x4 /tmp/ccqpieuX.o
                0x2001c524                viletryy
 .sbss.viletryx
                0x2001c528        0x4 /tmp/ccqpieuX.o
                0x2001c528                viletryx
 .sbss.vileobj  0x2001c52c        0x4 /tmp/ccqpieuX.o
                0x2001c52c                vileobj
 .sbss.corpsehit
                0x2001c530        0x4 /tmp/ccqpieuX.o
                0x2001c530                corpsehit
 .sbss.soundtarget
                0x2001c534        0x4 /tmp/ccqpieuX.o
                0x2001c534                soundtarget
 .sbss.nofit    0x2001c538        0x4 /tmp/cckymBR5.o
                0x2001c538                nofit
 .sbss.crushchange
                0x2001c53c        0x4 /tmp/cckymBR5.o
                0x2001c53c                crushchange
 .sbss.bombdamage
                0x2001c540        0x4 /tmp/cckymBR5.o
                0x2001c540                bombdamage
 .sbss.bombspot
                0x2001c544        0x4 /tmp/cckymBR5.o
                0x2001c544                bombspot
 .sbss.bombsource
                0x2001c548        0x4 /tmp/cckymBR5.o
                0x2001c548                bombsource
 .sbss.usething
                0x2001c54c        0x4 /tmp/cckymBR5.o
                0x2001c54c                usething
 .sbss.aimslope
                0x2001c550        0x4 /tmp/cckymBR5.o
                0x2001c550                aimslope
 .sbss.attackrange
                0x2001c554        0x4 /tmp/cckymBR5.o
                0x2001c554                attackrange
 .sbss.la_damage
                0x2001c558        0x4 /tmp/cckymBR5.o
                0x2001c558                la_damage
 .sbss.shootz   0x2001c55c        0x4 /tmp/cckymBR5.o
                0x2001c55c                shootz
 .sbss.shootthing
                0x2001c560        0x4 /tmp/cckymBR5.o
                0x2001c560                shootthing
 .sbss.linetarget
                0x2001c564        0x4 /tmp/cckymBR5.o
                0x2001c564                linetarget
 .sbss.tmymove  0x2001c568        0x4 /tmp/cckymBR5.o
                0x2001c568                tmymove
 .sbss.tmxmove  0x2001c56c        0x4 /tmp/cckymBR5.o
                0x2001c56c                tmxmove
 .sbss.slidemo  0x2001c570        0x4 /tmp/cckymBR5.o
                0x2001c570                slidemo
 .sbss.secondslideline
                0x2001c574        0x4 /tmp/cckymBR5.o
                0x2001c574                secondslideline
 .sbss.bestslideline
                0x2001c578        0x4 /tmp/cckymBR5.o
                0x2001c578                bestslideline
 .sbss.secondslidefrac
                0x2001c57c        0x4 /tmp/cckymBR5.o
                0x2001c57c                secondslidefrac
 .sbss.bestslidefrac
                0x2001c580        0x4 /tmp/cckymBR5.o
                0x2001c580                bestslidefrac
 .sbss.numspechit
                0x2001c584        0x4 /tmp/cckymBR5.o
                0x2001c584                numspechit
 .sbss.ceilingline
                0x2001c588        0x4 /tmp/cckymBR5.o
                0x2001c588                ceilingline
 .sbss.tmdropoffz
                0x2001c58c        0x4 /tmp/cckymBR5.o
                0x2001c58c                tmdropoffz
 .sbss.tmceilingz
                0x2001c590        0x4 /tmp/cckymBR5.o
                0x2001c590                tmceilingz
 .sbss.tmfloorz
                0x2001c594        0x4 /tmp/cckymBR5.o
                0x2001c594                tmfloorz
 .sbss.floatok  0x2001c598        0x4 /tmp/cckymBR5.o
                0x2001c598                floatok
 .sbss.tmy      0x2001c59c        0x4 /tmp/cckymBR5.o
                0x2001c59c                tmy
 .sbss.tmx      0x2001c5a0        0x4 /tmp/cckymBR5.o
                0x2001c5a0                tmx
 .sbss.tmflags  0x2001c5a4        0x4 /tmp/cckymBR5.o
                0x2001c5a4                tmflags
 .sbss.tmthing  0x2001c5a8        0x4 /tmp/cckymBR5.o
                0x2001c5a8                tmthing
 .sbss.earlyout
                0x2001c5ac        0x4 /tmp/ccf8vVS2.o
                0x2001c5ac                earlyout
 .sbss.intercept_p
                0x2001c5b0        0x4 /tmp/ccf8vVS2.o
                0x2001c5b0                intercept_p
 .sbss.lowfloor
                0x2001c5b4        0x4 /tmp/ccf8vVS2.o
                0x2001c5b4                lowfloor
 .sbss.openrange
                0x2001c5b8        0x4 /tmp/ccf8vVS2.o
                0x2001c5b8                openrange
 .sbss.openbottom
                0x2001c5bc        0x4 /tmp/ccf8vVS2.o
                0x2001c5bc                openbottom
 .sbss.opentop  0x2001c5c0        0x4 /tmp/ccf8vVS2.o
                0x2001c5c0                opentop
 .sbss.iquetail
                0x2001c5c4        0x4 /tmp/ccj2wwR0.o
                0x2001c5c4                iquetail
 .sbss.iquehead
                0x2001c5c8        0x4 /tmp/ccj2wwR0.o
                0x2001c5c8                iquehead
 .sbss.bulletslope
                0x2001c5cc        0x4 /tmp/cc1JYthu.o
                0x2001c5cc                bulletslope
 .sbss.save_p   0x2001c5d0        0x4 /tmp/ccmdsAPV.o
                0x2001c5d0                save_p
 .sbss.deathmatch_p
                0x2001c5d4        0x4 /tmp/cclbtQ5a.o
                0x2001c5d4                deathmatch_p
 .sbss.rejectmatrix
                0x2001c5d8        0x4 /tmp/cclbtQ5a.o
                0x2001c5d8                rejectmatrix
 .sbss.blocklinks
                0x2001c5dc        0x4 /tmp/cclbtQ5a.o
                0x2001c5dc                blocklinks
 .sbss.bmaporgy
                0x2001c5e0        0x4 /tmp/cclbtQ5a.o
                0x2001c5e0                bmaporgy
 .sbss.bmaporgx
                0x2001c5e4        0x4 /tmp/cclbtQ5a.o
                0x2001c5e4                bmaporgx
 .sbss.blockmaplump
                0x2001c5e8        0x4 /tmp/cclbtQ5a.o
                0x2001c5e8                blockmaplump
 .sbss.blockmap
                0x2001c5ec        0x4 /tmp/cclbtQ5a.o
                0x2001c5ec                blockmap
 .sbss.bmapheight
                0x2001c5f0        0x4 /tmp/cclbtQ5a.o
                0x2001c5f0                bmapheight
 .sbss.bmapwidth
                0x2001c5f4        0x4 /tmp/cclbtQ5a.o
                0x2001c5f4                bmapwidth
 .sbss.sides    0x2001c5f8        0x4 /tmp/cclbtQ5a.o
                0x2001c5f8                sides
 .sbss.numsides
                0x2001c5fc        0x4 /tmp/cclbtQ5a.o
                0x2001c5fc                numsides
 .sbss.lines    0x2001c600        0x4 /tmp/cclbtQ5a.o
                0x2001c600                lines
 .sbss.numlines
                0x2001c604        0x4 /tmp/cclbtQ5a.o
                0x2001c604                numlines
 .sbss.nodes    0x2001c608        0x4 /tmp/cclbtQ5a.o
                0x2001c608                nodes
 .sbss.numnodes
                0x2001c60c        0x4 /tmp/cclbtQ5a.o
                0x2001c60c                numnodes
 .sbss.subsectors
                0x2001c610        0x4 /tmp/cclbtQ5a.o
                0x2001c610                subsectors
 .sbss.numsubsectors
                0x2001c614        0x4 /tmp/cclbtQ5a.o
                0x2001c614                numsubsectors
 .sbss.sectors  0x2001c618        0x4 /tmp/cclbtQ5a.o
                0x2001c618                sectors
 .sbss.numsectors
                0x2001c61c        0x4 /tmp/cclbtQ5a.o
                0x2001c61c                numsectors
 .sbss.segs     0x2001c620        0x4 /tmp/cclbtQ5a.o
                0x2001c620                segs
 .sbss.numsegs  0x2001c624        0x4 /tmp/cclbtQ5a.o
                0x2001c624                numsegs
 .sbss.vertexes
                0x2001c628        0x4 /tmp/cclbtQ5a.o
                0x2001c628                vertexes
 .sbss.numvertexes
                0x2001c62c        0x4 /tmp/cclbtQ5a.o
                0x2001c62c                numvertexes
 .sbss.sightcounts
                0x2001c630        0x8 /tmp/ccsc2Jgi.o
                0x2001c630                sightcounts
 .sbss.t2y      0x2001c638        0x4 /tmp/ccsc2Jgi.o
                0x2001c638                t2y
 .sbss.t2x      0x2001c63c        0x4 /tmp/ccsc2Jgi.o
                0x2001c63c                t2x
 .sbss.bottomslope
                0x2001c640        0x4 /tmp/ccsc2Jgi.o
                0x2001c640                bottomslope
 .sbss.topslope
                0x2001c644        0x4 /tmp/ccsc2Jgi.o
                0x2001c644                topslope
 .sbss.sightzstart
                0x2001c648        0x4 /tmp/ccsc2Jgi.o
                0x2001c648                sightzstart
 .sbss.numlinespecials
                0x2001c64c        0x2 /tmp/ccVvVkCG.o
                0x2001c64c                numlinespecials
 *fill*         0x2001c64e        0x2 
 .sbss.levelTimeCount
                0x2001c650        0x4 /tmp/ccVvVkCG.o
                0x2001c650                levelTimeCount
 .sbss.levelTimer
                0x2001c654        0x4 /tmp/ccVvVkCG.o
                0x2001c654                levelTimer
 .sbss.lastanim
                0x2001c658        0x4 /tmp/ccVvVkCG.o
                0x2001c658                lastanim
 .sbss.numswitches
                0x2001c65c        0x4 /tmp/ccPJzS57.o
                0x2001c65c                numswitches
 .sbss.leveltime
                0x2001c660        0x4 /tmp/ccdfhlmN.o
                0x2001c660                leveltime
 .sbss.onground
                0x2001c664        0x4 /tmp/cc3sh9yo.o
                0x2001c664                onground
 .sbss.newend   0x2001c668        0x4 /tmp/ccvMH7AX.o
                0x2001c668                newend
 .sbss.ds_p     0x2001c66c        0x4 /tmp/ccvMH7AX.o
                0x2001c66c                ds_p
 .sbss.backsector
                0x2001c670        0x4 /tmp/ccvMH7AX.o
                0x2001c670                backsector
 .sbss.frontsector
                0x2001c674        0x4 /tmp/ccvMH7AX.o
                0x2001c674                frontsector
 .sbss.linedef  0x2001c678        0x4 /tmp/ccvMH7AX.o
                0x2001c678                linedef
 .sbss.sidedef  0x2001c67c        0x4 /tmp/ccvMH7AX.o
                0x2001c67c                sidedef
 .sbss.curline  0x2001c680        0x4 /tmp/ccvMH7AX.o
                0x2001c680                curline
 .sbss.spritememory
                0x2001c684        0x4 /tmp/cccIYygE.o
                0x2001c684                spritememory
 .sbss.texturememory
                0x2001c688        0x4 /tmp/cccIYygE.o
                0x2001c688                texturememory
 .sbss.flatmemory
                0x2001c68c        0x4 /tmp/cccIYygE.o
                0x2001c68c                flatmemory
 .sbss.colormaps
                0x2001c690        0x4 /tmp/cccIYygE.o
                0x2001c690                colormaps
 .sbss.spritetopoffset
                0x2001c694        0x4 /tmp/cccIYygE.o
                0x2001c694                spritetopoffset
 .sbss.spriteoffset
                0x2001c698        0x4 /tmp/cccIYygE.o
                0x2001c698                spriteoffset
 .sbss.spritewidth
                0x2001c69c        0x4 /tmp/cccIYygE.o
                0x2001c69c                spritewidth
 .sbss.texturetranslation
                0x2001c6a0        0x4 /tmp/cccIYygE.o
                0x2001c6a0                texturetranslation
 .sbss.flattranslation
                0x2001c6a4        0x4 /tmp/cccIYygE.o
                0x2001c6a4                flattranslation
 .sbss.texturecomposite
                0x2001c6a8        0x4 /tmp/cccIYygE.o
                0x2001c6a8                texturecomposite
 .sbss.texturecolumnofs
                0x2001c6ac        0x4 /tmp/cccIYygE.o
                0x2001c6ac                texturecolumnofs
 .sbss.texturecolumnlump
                0x2001c6b0        0x4 /tmp/cccIYygE.o
                0x2001c6b0                texturecolumnlump
 .sbss.texturecompositesize
                0x2001c6b4        0x4 /tmp/cccIYygE.o
                0x2001c6b4                texturecompositesize
 .sbss.textureheight
                0x2001c6b8        0x4 /tmp/cccIYygE.o
                0x2001c6b8                textureheight
 .sbss.texturewidthmask
                0x2001c6bc        0x4 /tmp/cccIYygE.o
                0x2001c6bc                texturewidthmask
 .sbss.textures
                0x2001c6c0        0x4 /tmp/cccIYygE.o
                0x2001c6c0                textures
 .sbss.numtextures
                0x2001c6c4        0x4 /tmp/cccIYygE.o
                0x2001c6c4                numtextures
 .sbss.numspritelumps
                0x2001c6c8        0x4 /tmp/cccIYygE.o
                0x2001c6c8                numspritelumps
 .sbss.lastspritelump
                0x2001c6cc        0x4 /tmp/cccIYygE.o
                0x2001c6cc                lastspritelump
 .sbss.firstspritelump
                0x2001c6d0        0x4 /tmp/cccIYygE.o
                0x2001c6d0                firstspritelump
 .sbss.numflats
                0x2001c6d4        0x4 /tmp/cccIYygE.o
                0x2001c6d4                numflats
 .sbss.lastflat
                0x2001c6d8        0x4 /tmp/cccIYygE.o
                0x2001c6d8                lastflat
 .sbss.firstflat
                0x2001c6dc        0x4 /tmp/cccIYygE.o
                0x2001c6dc                firstflat
 .sbss.ds_source
                0x2001c6e0        0x4 /tmp/ccwKsAYB.o
                0x2001c6e0                ds_source
 .sbss.ds_ystep
                0x2001c6e4        0x4 /tmp/ccwKsAYB.o
                0x2001c6e4                ds_ystep
 .sbss.ds_xstep
                0x2001c6e8        0x4 /tmp/ccwKsAYB.o
                0x2001c6e8                ds_xstep
 .sbss.ds_yfrac
                0x2001c6ec        0x4 /tmp/ccwKsAYB.o
                0x2001c6ec                ds_yfrac
 .sbss.ds_xfrac
                0x2001c6f0        0x4 /tmp/ccwKsAYB.o
                0x2001c6f0                ds_xfrac
 .sbss.ds_colormap
                0x2001c6f4        0x4 /tmp/ccwKsAYB.o
                0x2001c6f4                ds_colormap
 .sbss.ds_x2    0x2001c6f8        0x4 /tmp/ccwKsAYB.o
                0x2001c6f8                ds_x2
 .sbss.ds_x1    0x2001c6fc        0x4 /tmp/ccwKsAYB.o
                0x2001c6fc                ds_x1
 .sbss.ds_y     0x2001c700        0x4 /tmp/ccwKsAYB.o
                0x2001c700                ds_y
 .sbss.translationtables
                0x2001c704        0x4 /tmp/ccwKsAYB.o
                0x2001c704                translationtables
 .sbss.dc_translation
                0x2001c708        0x4 /tmp/ccwKsAYB.o
                0x2001c708                dc_translation
 .sbss.fuzzpos  0x2001c70c        0x4 /tmp/ccwKsAYB.o
                0x2001c70c                fuzzpos
 .sbss.dc_source
                0x2001c710        0x4 /tmp/ccwKsAYB.o
                0x2001c710                dc_source
 .sbss.dc_texturemid
                0x2001c714        0x4 /tmp/ccwKsAYB.o
                0x2001c714                dc_texturemid
 .sbss.dc_iscale
                0x2001c718        0x4 /tmp/ccwKsAYB.o
                0x2001c718                dc_iscale
 .sbss.dc_yh    0x2001c71c        0x4 /tmp/ccwKsAYB.o
                0x2001c71c                dc_yh
 .sbss.dc_yl    0x2001c720        0x4 /tmp/ccwKsAYB.o
                0x2001c720                dc_yl
 .sbss.dc_x     0x2001c724        0x4 /tmp/ccwKsAYB.o
                0x2001c724                dc_x
 .sbss.dc_colormap
                0x2001c728        0x4 /tmp/ccwKsAYB.o
                0x2001c728                dc_colormap
 .sbss.viewwindowy
                0x2001c72c        0x4 /tmp/ccwKsAYB.o
                0x2001c72c                viewwindowy
 .sbss.viewwindowx
                0x2001c730        0x4 /tmp/ccwKsAYB.o
                0x2001c730                viewwindowx
 .sbss.viewheight
                0x2001c734        0x4 /tmp/ccwKsAYB.o
                0x2001c734                viewheight
 .sbss.scaledviewwidth
                0x2001c738        0x4 /tmp/ccwKsAYB.o
                0x2001c738                scaledviewwidth
 .sbss.viewwidth
                0x2001c73c        0x4 /tmp/ccwKsAYB.o
                0x2001c73c                viewwidth
 .sbss.setdetail
                0x2001c740        0x4 /tmp/cc5i2vm6.o
                0x2001c740                setdetail
 .sbss.setblocks
                0x2001c744        0x4 /tmp/cc5i2vm6.o
                0x2001c744                setblocks
 .sbss.setsizeneeded
                0x2001c748        0x4 /tmp/cc5i2vm6.o
                0x2001c748                setsizeneeded
 .sbss.spanfunc
                0x2001c74c        0x4 /tmp/cc5i2vm6.o
                0x2001c74c                spanfunc
 .sbss.transcolfunc
                0x2001c750        0x4 /tmp/cc5i2vm6.o
                0x2001c750                transcolfunc
 .sbss.fuzzcolfunc
                0x2001c754        0x4 /tmp/cc5i2vm6.o
                0x2001c754                fuzzcolfunc
 .sbss.basecolfunc
                0x2001c758        0x4 /tmp/cc5i2vm6.o
                0x2001c758                basecolfunc
 .sbss.colfunc  0x2001c75c        0x4 /tmp/cc5i2vm6.o
                0x2001c75c                colfunc
 .sbss.extralight
                0x2001c760        0x4 /tmp/cc5i2vm6.o
                0x2001c760                extralight
 .sbss.clipangle
                0x2001c764        0x4 /tmp/cc5i2vm6.o
                0x2001c764                clipangle
 .sbss.detailshift
                0x2001c768        0x4 /tmp/cc5i2vm6.o
                0x2001c768                detailshift
 .sbss.viewplayer
                0x2001c76c        0x4 /tmp/cc5i2vm6.o
                0x2001c76c                viewplayer
 .sbss.viewsin  0x2001c770        0x4 /tmp/cc5i2vm6.o
                0x2001c770                viewsin
 .sbss.viewcos  0x2001c774        0x4 /tmp/cc5i2vm6.o
                0x2001c774                viewcos
 .sbss.viewangle
                0x2001c778        0x4 /tmp/cc5i2vm6.o
                0x2001c778                viewangle
 .sbss.viewz    0x2001c77c        0x4 /tmp/cc5i2vm6.o
                0x2001c77c                viewz
 .sbss.viewy    0x2001c780        0x4 /tmp/cc5i2vm6.o
                0x2001c780                viewy
 .sbss.viewx    0x2001c784        0x4 /tmp/cc5i2vm6.o
                0x2001c784                viewx
 .sbss.sscount  0x2001c788        0x4 /tmp/cc5i2vm6.o
                0x2001c788                sscount
 .sbss.framecount
                0x2001c78c        0x4 /tmp/cc5i2vm6.o
                0x2001c78c                framecount
 .sbss.projection
                0x2001c790        0x4 /tmp/cc5i2vm6.o
                0x2001c790                projection
 .sbss.centeryfrac
                0x2001c794        0x4 /tmp/cc5i2vm6.o
                0x2001c794                centeryfrac
 .sbss.centerxfrac
                0x2001c798        0x4 /tmp/cc5i2vm6.o
                0x2001c798                centerxfrac
 .sbss.centery  0x2001c79c        0x4 /tmp/cc5i2vm6.o
                0x2001c79c                centery
 .sbss.centerx  0x2001c7a0        0x4 /tmp/cc5i2vm6.o
                0x2001c7a0                centerx
 .sbss.fixedcolormap
                0x2001c7a4        0x4 /tmp/cc5i2vm6.o
                0x2001c7a4                fixedcolormap
 .sbss.viewangleoffset
                0x2001c7a8        0x4 /tmp/cc5i2vm6.o
                0x2001c7a8                viewangleoffset
 .sbss.baseyscale
                0x2001c7ac        0x4 /tmp/ccf0NvUc.o
                0x2001c7ac                baseyscale
 .sbss.basexscale
                0x2001c7b0        0x4 /tmp/ccf0NvUc.o
                0x2001c7b0                basexscale
 .sbss.planeheight
                0x2001c7b4        0x4 /tmp/ccf0NvUc.o
                0x2001c7b4                planeheight
 .sbss.planezlight
                0x2001c7b8        0x4 /tmp/ccf0NvUc.o
                0x2001c7b8                planezlight
 .sbss.lastopening
                0x2001c7bc        0x4 /tmp/ccf0NvUc.o
                0x2001c7bc                lastopening
 .sbss.ceilingplane
                0x2001c7c0        0x4 /tmp/ccf0NvUc.o
                0x2001c7c0                ceilingplane
 .sbss.floorplane
                0x2001c7c4        0x4 /tmp/ccf0NvUc.o
                0x2001c7c4                floorplane
 .sbss.lastvisplane
                0x2001c7c8        0x4 /tmp/ccf0NvUc.o
                0x2001c7c8                lastvisplane
 .sbss.maskedtexturecol
                0x2001c7cc        0x4 /tmp/cc60vALi.o
                0x2001c7cc                maskedtexturecol
 .sbss.walllights
                0x2001c7d0        0x4 /tmp/cc60vALi.o
                0x2001c7d0                walllights
 .sbss.bottomstep
                0x2001c7d4        0x4 /tmp/cc60vALi.o
                0x2001c7d4                bottomstep
 .sbss.bottomfrac
                0x2001c7d8        0x4 /tmp/cc60vALi.o
                0x2001c7d8                bottomfrac
 .sbss.topstep  0x2001c7dc        0x4 /tmp/cc60vALi.o
                0x2001c7dc                topstep
 .sbss.topfrac  0x2001c7e0        0x4 /tmp/cc60vALi.o
                0x2001c7e0                topfrac
 .sbss.pixlowstep
                0x2001c7e4        0x4 /tmp/cc60vALi.o
                0x2001c7e4                pixlowstep
 .sbss.pixhighstep
                0x2001c7e8        0x4 /tmp/cc60vALi.o
                0x2001c7e8                pixhighstep
 .sbss.pixlow   0x2001c7ec        0x4 /tmp/cc60vALi.o
                0x2001c7ec                pixlow
 .sbss.pixhigh  0x2001c7f0        0x4 /tmp/cc60vALi.o
                0x2001c7f0                pixhigh
 .sbss.worldlow
                0x2001c7f4        0x4 /tmp/cc60vALi.o
                0x2001c7f4                worldlow
 .sbss.worldhigh
                0x2001c7f8        0x4 /tmp/cc60vALi.o
                0x2001c7f8                worldhigh
 .sbss.worldbottom
                0x2001c7fc        0x4 /tmp/cc60vALi.o
                0x2001c7fc                worldbottom
 .sbss.worldtop
                0x2001c800        0x4 /tmp/cc60vALi.o
                0x2001c800                worldtop
 .sbss.rw_bottomtexturemid
                0x2001c804        0x4 /tmp/cc60vALi.o
                0x2001c804                rw_bottomtexturemid
 .sbss.rw_toptexturemid
                0x2001c808        0x4 /tmp/cc60vALi.o
                0x2001c808                rw_toptexturemid
 .sbss.rw_midtexturemid
                0x2001c80c        0x4 /tmp/cc60vALi.o
                0x2001c80c                rw_midtexturemid
 .sbss.rw_scalestep
                0x2001c810        0x4 /tmp/cc60vALi.o
                0x2001c810                rw_scalestep
 .sbss.rw_scale
                0x2001c814        0x4 /tmp/cc60vALi.o
                0x2001c814                rw_scale
 .sbss.rw_distance
                0x2001c818        0x4 /tmp/cc60vALi.o
                0x2001c818                rw_distance
 .sbss.rw_offset
                0x2001c81c        0x4 /tmp/cc60vALi.o
                0x2001c81c                rw_offset
 .sbss.rw_centerangle
                0x2001c820        0x4 /tmp/cc60vALi.o
                0x2001c820                rw_centerangle
 .sbss.rw_stopx
                0x2001c824        0x4 /tmp/cc60vALi.o
                0x2001c824                rw_stopx
 .sbss.rw_x     0x2001c828        0x4 /tmp/cc60vALi.o
                0x2001c828                rw_x
 .sbss.rw_angle1
                0x2001c82c        0x4 /tmp/cc60vALi.o
                0x2001c82c                rw_angle1
 .sbss.rw_normalangle
                0x2001c830        0x4 /tmp/cc60vALi.o
                0x2001c830                rw_normalangle
 .sbss.midtexture
                0x2001c834        0x4 /tmp/cc60vALi.o
                0x2001c834                midtexture
 .sbss.bottomtexture
                0x2001c838        0x4 /tmp/cc60vALi.o
                0x2001c838                bottomtexture
 .sbss.toptexture
                0x2001c83c        0x4 /tmp/cc60vALi.o
                0x2001c83c                toptexture
 .sbss.maskedtexture
                0x2001c840        0x4 /tmp/cc60vALi.o
                0x2001c840                maskedtexture
 .sbss.markceiling
                0x2001c844        0x4 /tmp/cc60vALi.o
                0x2001c844                markceiling
 .sbss.markfloor
                0x2001c848        0x4 /tmp/cc60vALi.o
                0x2001c848                markfloor
 .sbss.segtextured
                0x2001c84c        0x4 /tmp/cc60vALi.o
                0x2001c84c                segtextured
 .sbss.skytexturemid
                0x2001c850        0x4 /tmp/ccof1MZ4.o
                0x2001c850                skytexturemid
 .sbss.skytexture
                0x2001c854        0x4 /tmp/ccof1MZ4.o
                0x2001c854                skytexture
 .sbss.skyflatnum
                0x2001c858        0x4 /tmp/ccof1MZ4.o
                0x2001c858                skyflatnum
 .sbss.sprtopscreen
                0x2001c85c        0x4 /tmp/ccUvJ9IP.o
                0x2001c85c                sprtopscreen
 .sbss.spryscale
                0x2001c860        0x4 /tmp/ccUvJ9IP.o
                0x2001c860                spryscale
 .sbss.mceilingclip
                0x2001c864        0x4 /tmp/ccUvJ9IP.o
                0x2001c864                mceilingclip
 .sbss.mfloorclip
                0x2001c868        0x4 /tmp/ccUvJ9IP.o
                0x2001c868                mfloorclip
 .sbss.vissprite_p
                0x2001c86c        0x4 /tmp/ccUvJ9IP.o
                0x2001c86c                vissprite_p
 .sbss.spritename
                0x2001c870        0x4 /tmp/ccUvJ9IP.o
                0x2001c870                spritename
 .sbss.maxframe
                0x2001c874        0x4 /tmp/ccUvJ9IP.o
                0x2001c874                maxframe
 .sbss.numsprites
                0x2001c878        0x4 /tmp/ccUvJ9IP.o
                0x2001c878                numsprites
 .sbss.sprites  0x2001c87c        0x4 /tmp/ccUvJ9IP.o
                0x2001c87c                sprites
 .sbss.spritelights
                0x2001c880        0x4 /tmp/ccUvJ9IP.o
                0x2001c880                spritelights
 .sbss.pspriteiscale
                0x2001c884        0x4 /tmp/ccUvJ9IP.o
                0x2001c884                pspriteiscale
 .sbss.pspritescale
                0x2001c888        0x4 /tmp/ccUvJ9IP.o
                0x2001c888                pspritescale
 .sbss.sttminus
                0x2001c88c        0x4 /tmp/cchLfgF1.o
                0x2001c88c                sttminus
 .sbss.priority.2
                0x2001c890        0x4 /tmp/ccmkZrYQ.o
 .sbss.lastcalc.3
                0x2001c894        0x4 /tmp/ccmkZrYQ.o
 .sbss.st_palette
                0x2001c898        0x4 /tmp/ccmkZrYQ.o
 .sbss.st_randomnumber
                0x2001c89c        0x4 /tmp/ccmkZrYQ.o
 .sbss.st_faceindex
                0x2001c8a0        0x4 /tmp/ccmkZrYQ.o
 .sbss.st_facecount
                0x2001c8a4        0x4 /tmp/ccmkZrYQ.o
 .sbss.st_fragscount
                0x2001c8a8        0x4 /tmp/ccmkZrYQ.o
 .sbss.armsbg   0x2001c8ac        0x4 /tmp/ccmkZrYQ.o
 .sbss.faceback
                0x2001c8b0        0x4 /tmp/ccmkZrYQ.o
 .sbss.tallpercent
                0x2001c8b4        0x4 /tmp/ccmkZrYQ.o
 .sbss.sbar     0x2001c8b8        0x4 /tmp/ccmkZrYQ.o
 .sbss.st_fragson
                0x2001c8bc        0x4 /tmp/ccmkZrYQ.o
 .sbss.st_armson
                0x2001c8c0        0x4 /tmp/ccmkZrYQ.o
 .sbss.st_notdeathmatch
                0x2001c8c4        0x4 /tmp/ccmkZrYQ.o
 .sbss.st_oldchat
                0x2001c8c8        0x4 /tmp/ccmkZrYQ.o
 .sbss.st_statusbaron
                0x2001c8cc        0x4 /tmp/ccmkZrYQ.o
 .sbss.st_msgcounter
                0x2001c8d0        0x4 /tmp/ccmkZrYQ.o
 .sbss.st_clock
                0x2001c8d4        0x4 /tmp/ccmkZrYQ.o
 .sbss.lu_palette
                0x2001c8d8        0x4 /tmp/ccmkZrYQ.o
 .sbss.st_firsttime
                0x2001c8dc        0x4 /tmp/ccmkZrYQ.o
 .sbss.plyr     0x2001c8e0        0x4 /tmp/ccmkZrYQ.o
 .sbss.usegamma
                0x2001c8e4        0x4 /tmp/ccGmmR0A.o
                0x2001c8e4                usegamma
 .sbss.sp_state
                0x2001c8e8        0x4 /tmp/ccUXxFQp.o
 .sbss.ng_state
                0x2001c8ec        0x4 /tmp/ccUXxFQp.o
 .sbss.dofrags  0x2001c8f0        0x4 /tmp/ccUXxFQp.o
 .sbss.dm_state
                0x2001c8f4        0x4 /tmp/ccUXxFQp.o
 .sbss.snl_pointeron
                0x2001c8f8        0x4 /tmp/ccUXxFQp.o
 .sbss.lnames   0x2001c8fc        0x4 /tmp/ccUXxFQp.o
 .sbss.bstar    0x2001c900        0x4 /tmp/ccUXxFQp.o
 .sbss.star     0x2001c904        0x4 /tmp/ccUXxFQp.o
 .sbss.total    0x2001c908        0x4 /tmp/ccUXxFQp.o
 .sbss.victims  0x2001c90c        0x4 /tmp/ccUXxFQp.o
 .sbss.killers  0x2001c910        0x4 /tmp/ccUXxFQp.o
 .sbss.sucks    0x2001c914        0x4 /tmp/ccUXxFQp.o
 .sbss.par      0x2001c918        0x4 /tmp/ccUXxFQp.o
 .sbss.time     0x2001c91c        0x4 /tmp/ccUXxFQp.o
 .sbss.frags    0x2001c920        0x4 /tmp/ccUXxFQp.o
 .sbss.items    0x2001c924        0x4 /tmp/ccUXxFQp.o
 .sbss.secret   0x2001c928        0x4 /tmp/ccUXxFQp.o
 .sbss.kills    0x2001c92c        0x4 /tmp/ccUXxFQp.o
 .sbss.sp_secret
                0x2001c930        0x4 /tmp/ccUXxFQp.o
 .sbss.entering
                0x2001c934        0x4 /tmp/ccUXxFQp.o
 .sbss.finished
                0x2001c938        0x4 /tmp/ccUXxFQp.o
 .sbss.wiminus  0x2001c93c        0x4 /tmp/ccUXxFQp.o
 .sbss.colon    0x2001c940        0x4 /tmp/ccUXxFQp.o
 .sbss.percent  0x2001c944        0x4 /tmp/ccUXxFQp.o
 .sbss.splat    0x2001c948        0x4 /tmp/ccUXxFQp.o
 .sbss.yah      0x2001c94c        0x8 /tmp/ccUXxFQp.o
 .sbss.NUMCMAPS
                0x2001c954        0x4 /tmp/ccUXxFQp.o
 .sbss.cnt_pause
                0x2001c958        0x4 /tmp/ccUXxFQp.o
 .sbss.cnt_par  0x2001c95c        0x4 /tmp/ccUXxFQp.o
 .sbss.cnt_time
                0x2001c960        0x4 /tmp/ccUXxFQp.o
 .sbss.bcnt     0x2001c964        0x4 /tmp/ccUXxFQp.o
 .sbss.cnt      0x2001c968        0x4 /tmp/ccUXxFQp.o
 .sbss.plrs     0x2001c96c        0x4 /tmp/ccUXxFQp.o
 .sbss.wbs      0x2001c970        0x4 /tmp/ccUXxFQp.o
 .sbss.state    0x2001c974        0x4 /tmp/ccUXxFQp.o
 .sbss.me       0x2001c978        0x4 /tmp/ccUXxFQp.o
 .sbss.acceleratestage
                0x2001c97c        0x4 /tmp/ccUXxFQp.o
 .sbss.reloadname
                0x2001c980        0x4 /tmp/cckYeBJT.o
                0x2001c980                reloadname
 .sbss.reloadlump
                0x2001c984        0x4 /tmp/cckYeBJT.o
                0x2001c984                reloadlump
 .sbss.lumpcache
                0x2001c988        0x4 /tmp/cckYeBJT.o
                0x2001c988                lumpcache
 .sbss.numlumps
                0x2001c98c        0x4 /tmp/cckYeBJT.o
                0x2001c98c                numlumps
 .sbss.lumpinfo
                0x2001c990        0x4 /tmp/cckYeBJT.o
                0x2001c990                lumpinfo
 .sbss.mainzone
                0x2001c994        0x4 /tmp/ccj4PUoF.o
                0x2001c994                mainzone
 .sbss.menuactivestate.0
                0x2001c998        0x4 /tmp/ccp2R3Ps.o
 .sbss.viewactivestate.1
                0x2001c99c        0x4 /tmp/ccp2R3Ps.o
 .sbss.inhelpscreensstate.2
                0x2001c9a0        0x4 /tmp/ccp2R3Ps.o
 .sbss.fullscreen.3
                0x2001c9a4        0x4 /tmp/ccp2R3Ps.o
 .sbss.borderdrawcount.4
                0x2001c9a8        0x4 /tmp/ccp2R3Ps.o
 .sbss.pagename
                0x2001c9ac        0x4 /tmp/ccp2R3Ps.o
                0x2001c9ac                pagename
 .sbss.pagetic  0x2001c9b0        0x4 /tmp/ccp2R3Ps.o
                0x2001c9b0                pagetic
 .sbss.demosequence
                0x2001c9b4        0x4 /tmp/ccp2R3Ps.o
                0x2001c9b4                demosequence
 .sbss.eventtail
                0x2001c9b8        0x4 /tmp/ccp2R3Ps.o
                0x2001c9b8                eventtail
 .sbss.eventhead
                0x2001c9bc        0x4 /tmp/ccp2R3Ps.o
                0x2001c9bc                eventhead
 .sbss.advancedemo
                0x2001c9c0        0x4 /tmp/ccp2R3Ps.o
                0x2001c9c0                advancedemo
 .sbss.autostart
                0x2001c9c4        0x4 /tmp/ccp2R3Ps.o
                0x2001c9c4                autostart
 .sbss.startmap
                0x2001c9c8        0x4 /tmp/ccp2R3Ps.o
                0x2001c9c8                startmap
 .sbss.startepisode
                0x2001c9cc        0x4 /tmp/ccp2R3Ps.o
                0x2001c9cc                startepisode
 .sbss.startskill
                0x2001c9d0        0x4 /tmp/ccp2R3Ps.o
                0x2001c9d0                startskill
 .sbss.fastparm
                0x2001c9d4        0x4 /tmp/ccp2R3Ps.o
                0x2001c9d4                fastparm
 .sbss.respawnparm
                0x2001c9d8        0x4 /tmp/ccp2R3Ps.o
                0x2001c9d8                respawnparm
 .sbss.nomonsters
                0x2001c9dc        0x4 /tmp/ccp2R3Ps.o
                0x2001c9dc                nomonsters
 .sbss.devparm  0x2001c9e0        0x4 /tmp/ccp2R3Ps.o
                0x2001c9e0                devparm
 .sbss.emptycmd.0
                0x2001c9e4        0x8 /tmp/ccA3sui6.o
 .sbss.s_btn.1  0x2001c9ec        0x1 /tmp/ccA3sui6.o
 *fill*         0x2001c9ed        0x3 
 .sbss.vt_base  0x2001c9f0        0x4 /tmp/ccA3sui6.o
 .sbss.vt_last  0x2001c9f4        0x2 /tmp/ccA3sui6.o
 *fill*         0x2001c9f6        0x2 
 .sbss.tick_prev.0
                0x2001c9f8        0x4 /tmp/ccx6M4gp.o
 .sbss.frame_cnt.1
                0x2001c9fc        0x4 /tmp/ccx6M4gp.o
 .sbss.numChannels
                0x2001ca00        0x4 /tmp/ccb1royM.o
                0x2001ca00                numChannels
 .sbss.snd_MusicVolume
                0x2001ca04        0x4 /tmp/ccb1royM.o
                0x2001ca04                snd_MusicVolume
 .sbss.snd_SfxVolume
                0x2001ca08        0x4 /tmp/ccb1royM.o
                0x2001ca08                snd_SfxVolume
 .sbss.__malloc_sbrk_start
                0x2001ca0c        0x4 /prog/riscv/lib/gcc/riscv64-unknown-elf/14.2.0/../../../../riscv64-unknown-elf/lib/rv32im_zicsr/ilp32/libc_nano.a(libc_a-mallocr.o)
                0x2001ca0c                __malloc_sbrk_start
 .sbss.__malloc_free_list
                0x2001ca10        0x4 /prog/riscv/lib/gcc/riscv64-unknown-elf/14.2.0/../../../../riscv64-unknown-elf/lib/rv32im_zicsr/ilp32/libc_nano.a(libc_a-mallocr.o)
                0x2001ca10                __malloc_free_list
 .sbss.__stdio_exit_handler
                0x2001ca14        0x4 /prog/riscv/lib/gcc/riscv64-unknown-elf/14.2.0/../../../../riscv64-unknown-elf/lib/rv32im_zicsr/ilp32/libc_nano.a(libc_a-findfp.o)
                0x2001ca14                __stdio_exit_handler
 .sbss.errno    0x2001ca18        0x4 /prog/riscv/lib/gcc/riscv64-unknown-elf/14.2.0/../../../../riscv64-unknown-elf/lib/rv32im_zicsr/ilp32/libc_nano.a(libc_a-reent.o)
                0x2001ca18                errno
 *(.scommon)

.bss            0x2001ca1c    0x6f460
 *(.dynbss)
 *(.bss .bss.* .gnu.linkonce.b.*)
 .bss.l.1       0x2001ca1c       0x10 /tmp/ccIUcI9t.o
 .bss.fl.2      0x2001ca2c       0x10 /tmp/ccIUcI9t.o
 .bss.buffer.7  0x2001ca3c       0x14 /tmp/ccIUcI9t.o
 .bss.markpoints
                0x2001ca50       0x50 /tmp/ccIUcI9t.o
 .bss.marknums  0x2001caa0       0x28 /tmp/ccIUcI9t.o
 .bss.frameskip
                0x2001cac8       0x10 /tmp/ccpgEVRG.o
                0x2001cac8                frameskip
 .bss.exitmsg   0x2001cad8       0x50 /tmp/ccpgEVRG.o
                0x2001cad8                exitmsg
 .bss.reboundstore
                0x2001cb28       0x68 /tmp/ccpgEVRG.o
                0x2001cb28                reboundstore
 .bss.nodeforplayer
                0x2001cb90       0x10 /tmp/ccpgEVRG.o
                0x2001cb90                nodeforplayer
 .bss.resendcount
                0x2001cba0       0x20 /tmp/ccpgEVRG.o
                0x2001cba0                resendcount
 .bss.resendto  0x2001cbc0       0x20 /tmp/ccpgEVRG.o
                0x2001cbc0                resendto
 .bss.remoteresend
                0x2001cbe0       0x20 /tmp/ccpgEVRG.o
                0x2001cbe0                remoteresend
 .bss.nodeingame
                0x2001cc00       0x20 /tmp/ccpgEVRG.o
                0x2001cc00                nodeingame
 .bss.nettics   0x2001cc20       0x20 /tmp/ccpgEVRG.o
                0x2001cc20                nettics
 .bss.netcmds   0x2001cc40      0x180 /tmp/ccpgEVRG.o
                0x2001cc40                netcmds
 .bss.localcmds
                0x2001cdc0       0x60 /tmp/ccpgEVRG.o
                0x2001cdc0                localcmds
 .bss.turbomessage.0
                0x2001ce20       0x50 /tmp/ccUtj4vl.o
 .bss.savename  0x2001ce70      0x100 /tmp/ccUtj4vl.o
                0x2001ce70                savename
 .bss.bodyque   0x2001cf70       0x80 /tmp/ccUtj4vl.o
                0x2001cf70                bodyque
 .bss.savedescription
                0x2001cff0       0x20 /tmp/ccUtj4vl.o
                0x2001cff0                savedescription
 .bss.joyarray  0x2001d010       0x14 /tmp/ccUtj4vl.o
                0x2001d010                joyarray
 .bss.mousearray
                0x2001d024       0x10 /tmp/ccUtj4vl.o
                0x2001d024                mousearray
 .bss.gamekeydown
                0x2001d034      0x400 /tmp/ccUtj4vl.o
                0x2001d034                gamekeydown
 .bss.consistancy
                0x2001d434       0x60 /tmp/ccUtj4vl.o
                0x2001d434                consistancy
 .bss.wminfo    0x2001d494       0xc8 /tmp/ccUtj4vl.o
                0x2001d494                wminfo
 .bss.demoname  0x2001d55c       0x20 /tmp/ccUtj4vl.o
                0x2001d55c                demoname
 .bss.players   0x2001d57c      0x460 /tmp/ccUtj4vl.o
                0x2001d57c                players
 .bss.playeringame
                0x2001d9dc       0x10 /tmp/ccUtj4vl.o
                0x2001d9dc                playeringame
 .bss.lastmessage.0
                0x2001d9ec       0x51 /tmp/ccEARxVL.o
 *fill*         0x2001da3d        0x3 
 .bss.chatchars
                0x2001da40       0x80 /tmp/ccEARxVL.o
 .bss.w_message
                0x2001dac0      0x1c0 /tmp/ccEARxVL.o
 .bss.w_inputbuffer
                0x2001dc80      0x1e0 /tmp/ccEARxVL.o
 .bss.w_chat    0x2001de60       0x78 /tmp/ccEARxVL.o
 .bss.w_title   0x2001ded8       0x6c /tmp/ccEARxVL.o
 .bss.hu_font   0x2001df44       0xfc /tmp/ccEARxVL.o
                0x2001df44                hu_font
 .bss.cheat_xlate_table
                0x2001e040      0x100 /tmp/ccKIE5CM.o
 .bss.tempstring
                0x2001e140       0x60 /tmp/ccfLgswY.o
                0x2001e140                tempstring
 .bss.endstring
                0x2001e1a0       0xa0 /tmp/ccfLgswY.o
                0x2001e1a0                endstring
 .bss.savegamestrings
                0x2001e240       0xf0 /tmp/ccfLgswY.o
                0x2001e240                savegamestrings
 .bss.saveOldString
                0x2001e330       0x18 /tmp/ccfLgswY.o
                0x2001e330                saveOldString
 .bss.activeceilings
                0x2001e348       0x78 /tmp/cclH31lB.o
                0x2001e348                activeceilings
 .bss.braintargets
                0x2001e3c0       0x80 /tmp/ccqpieuX.o
                0x2001e3c0                braintargets
 .bss.spechit   0x2001e440       0x20 /tmp/cckymBR5.o
                0x2001e440                spechit
 .bss.tmbbox    0x2001e460       0x10 /tmp/cckymBR5.o
                0x2001e460                tmbbox
 .bss.trace     0x2001e470       0x10 /tmp/ccf8vVS2.o
                0x2001e470                trace
 .bss.intercepts
                0x2001e480      0x600 /tmp/ccf8vVS2.o
                0x2001e480                intercepts
 .bss.itemrespawntime
                0x2001ea80      0x200 /tmp/ccj2wwR0.o
                0x2001ea80                itemrespawntime
 .bss.itemrespawnque
                0x2001ec80      0x500 /tmp/ccj2wwR0.o
                0x2001ec80                itemrespawnque
 .bss.activeplats
                0x2001f180       0x78 /tmp/ccvd2S5m.o
                0x2001f180                activeplats
 .bss.playerstarts
                0x2001f1f8       0x28 /tmp/cclbtQ5a.o
                0x2001f1f8                playerstarts
 .bss.deathmatchstarts
                0x2001f220       0x64 /tmp/cclbtQ5a.o
                0x2001f220                deathmatchstarts
 .bss.strace    0x2001f284       0x10 /tmp/ccsc2Jgi.o
                0x2001f284                strace
 .bss.linespeciallist
                0x2001f294      0x100 /tmp/ccVvVkCG.o
                0x2001f294                linespeciallist
 .bss.anims     0x2001f394      0x280 /tmp/ccVvVkCG.o
                0x2001f394                anims
 .bss.buttonlist
                0x2001f614      0x140 /tmp/ccPJzS57.o
                0x2001f614                buttonlist
 .bss.switchlist
                0x2001f754      0x190 /tmp/ccPJzS57.o
                0x2001f754                switchlist
 .bss.thinkercap
                0x2001f8e4        0xc /tmp/ccdfhlmN.o
                0x2001f8e4                thinkercap
 .bss.solidsegs
                0x2001f8f0      0x100 /tmp/ccvMH7AX.o
                0x2001f8f0                solidsegs
 .bss.drawsegs  0x2001f9f0     0x3000 /tmp/ccvMH7AX.o
                0x2001f9f0                drawsegs
 .bss.zlight    0x200229f0     0x2000 /tmp/cc5i2vm6.o
                0x200229f0                zlight
 .bss.scalelightfixed
                0x200249f0       0xc0 /tmp/cc5i2vm6.o
                0x200249f0                scalelightfixed
 .bss.scalelight
                0x20024ab0      0xc00 /tmp/cc5i2vm6.o
                0x20024ab0                scalelight
 .bss.xtoviewangle
                0x200256b0      0x504 /tmp/cc5i2vm6.o
                0x200256b0                xtoviewangle
 .bss.viewangletox
                0x20025bb4     0x4000 /tmp/cc5i2vm6.o
                0x20025bb4                viewangletox
 .bss.cachedystep
                0x20029bb4      0x320 /tmp/ccf0NvUc.o
                0x20029bb4                cachedystep
 .bss.cachedxstep
                0x20029ed4      0x320 /tmp/ccf0NvUc.o
                0x20029ed4                cachedxstep
 .bss.cacheddistance
                0x2002a1f4      0x320 /tmp/ccf0NvUc.o
                0x2002a1f4                cacheddistance
 .bss.cachedheight
                0x2002a514      0x320 /tmp/ccf0NvUc.o
                0x2002a514                cachedheight
 .bss.distscale
                0x2002a834      0x500 /tmp/ccf0NvUc.o
                0x2002a834                distscale
 .bss.yslope    0x2002ad34      0x320 /tmp/ccf0NvUc.o
                0x2002ad34                yslope
 .bss.spanstart
                0x2002b054      0x320 /tmp/ccf0NvUc.o
                0x2002b054                spanstart
 .bss.ceilingclip
                0x2002b374      0x280 /tmp/ccf0NvUc.o
                0x2002b374                ceilingclip
 .bss.floorclip
                0x2002b5f4      0x280 /tmp/ccf0NvUc.o
                0x2002b5f4                floorclip
 .bss.openings  0x2002b874     0xa000 /tmp/ccf0NvUc.o
                0x2002b874                openings
 .bss.visplanes
                0x20035874    0x14c00 /tmp/ccf0NvUc.o
                0x20035874                visplanes
 .bss.vsprsortedhead
                0x2004a474       0x3c /tmp/ccUvJ9IP.o
                0x2004a474                vsprsortedhead
 .bss.overflowsprite
                0x2004a4b0       0x3c /tmp/ccUvJ9IP.o
                0x2004a4b0                overflowsprite
 .bss.vissprites
                0x2004a4ec     0x1e00 /tmp/ccUvJ9IP.o
                0x2004a4ec                vissprites
 .bss.sprtemp   0x2004c2ec      0x32c /tmp/ccUvJ9IP.o
                0x2004c2ec                sprtemp
 .bss.screenheightarray
                0x2004c618      0x280 /tmp/ccUvJ9IP.o
                0x2004c618                screenheightarray
 .bss.negonearray
                0x2004c898      0x280 /tmp/ccUvJ9IP.o
                0x2004c898                negonearray
 .bss.buf.5     0x2004cb18       0x34 /tmp/ccmkZrYQ.o
 .bss.keyboxes  0x2004cb4c        0xc /tmp/ccmkZrYQ.o
 .bss.oldweaponsowned
                0x2004cb58       0x24 /tmp/ccmkZrYQ.o
 .bss.w_maxammo
                0x2004cb7c       0x80 /tmp/ccmkZrYQ.o
 .bss.w_ammo    0x2004cbfc       0x80 /tmp/ccmkZrYQ.o
 .bss.w_armor   0x2004cc7c       0x24 /tmp/ccmkZrYQ.o
 .bss.w_keyboxes
                0x2004cca0       0x54 /tmp/ccmkZrYQ.o
 .bss.w_faces   0x2004ccf4       0x1c /tmp/ccmkZrYQ.o
 .bss.w_arms    0x2004cd10       0xa8 /tmp/ccmkZrYQ.o
 .bss.w_armsbg  0x2004cdb8       0x1c /tmp/ccmkZrYQ.o
 .bss.w_health  0x2004cdd4       0x24 /tmp/ccmkZrYQ.o
 .bss.w_frags   0x2004cdf8       0x20 /tmp/ccmkZrYQ.o
 .bss.w_ready   0x2004ce18       0x20 /tmp/ccmkZrYQ.o
 .bss.arms      0x2004ce38       0x30 /tmp/ccmkZrYQ.o
 .bss.faces     0x2004ce68       0xa8 /tmp/ccmkZrYQ.o
 .bss.keys      0x2004cf10       0x18 /tmp/ccmkZrYQ.o
 .bss.shortnum  0x2004cf28       0x28 /tmp/ccmkZrYQ.o
 .bss.tallnum   0x2004cf50       0x28 /tmp/ccmkZrYQ.o
 .bss.dirtybox  0x2004cf78       0x10 /tmp/ccGmmR0A.o
                0x2004cf78                dirtybox
 .bss.screen3   0x2004cf88     0xfa00 /tmp/ccGmmR0A.o
                0x2004cf88                screen3
 .bss.screen2   0x2005c988     0xfa00 /tmp/ccGmmR0A.o
                0x2005c988                screen2
 .bss.screen1   0x2006c388     0xfa00 /tmp/ccGmmR0A.o
                0x2006c388                screen1
 .bss.screen0   0x2007bd88     0xfa00 /tmp/ccGmmR0A.o
                0x2007bd88                screen0
 .bss.screens   0x2008b788       0x14 /tmp/ccGmmR0A.o
                0x2008b788                screens
 .bss.cnt_frags
                0x2008b79c       0x10 /tmp/ccUXxFQp.o
 .bss.dm_totals
                0x2008b7ac       0x10 /tmp/ccUXxFQp.o
 .bss.dm_frags  0x2008b7bc       0x40 /tmp/ccUXxFQp.o
 .bss.bp        0x2008b7fc       0x10 /tmp/ccUXxFQp.o
 .bss.p         0x2008b80c       0x10 /tmp/ccUXxFQp.o
 .bss.num       0x2008b81c       0x28 /tmp/ccUXxFQp.o
 .bss.cnt_secret
                0x2008b844       0x10 /tmp/ccUXxFQp.o
 .bss.cnt_items
                0x2008b854       0x10 /tmp/ccUXxFQp.o
 .bss.cnt_kills
                0x2008b864       0x10 /tmp/ccUXxFQp.o
 .bss.events    0x2008b874      0x400 /tmp/ccp2R3Ps.o
                0x2008b874                events
 .bss.wadfiles  0x2008bc74       0x50 /tmp/ccp2R3Ps.o
                0x2008bc74                wadfiles
 .bss._printf_buf.0
                0x2008bcc4       0x80 /tmp/cchsEYcK.o
 .bss.__sf      0x2008bd44      0x138 /prog/riscv/lib/gcc/riscv64-unknown-elf/14.2.0/../../../../riscv64-unknown-elf/lib/rv32im_zicsr/ilp32/libc_nano.a(libc_a-findfp.o)
                0x2008bd44                __sf
 *(COMMON)
                0x2008be7c                        . = ALIGN ((. != 0x0)?0x4:0x1)
                0x2008be7c                        . = ALIGN (0x4)
                0x2008be7c                        . = SEGMENT_START ("ldata-segment", .)
                0x2008be7c                        . = ALIGN (0x4)
                0x2008be7c                        __BSS_END__ = .
                0x2008be7c                        _end = .
                [!provide]                        PROVIDE (end = .)

.heap           0x2008be7c        0x0
                0x2008be7c                        . = ALIGN (0x4)
                0x2008be7c                        _heap_start = .
                0x2001c910                        __global_pointer$ = MIN ((__SDATA_BEGIN__ + 0x800), MAX ((__DATA_BEGIN__ + 0x800), (__BSS_END__ - 0x800)))
                0x21000000                        PROVIDE (__stack_top = (ORIGIN (RAM) + LENGTH (RAM)))
OUTPUT(doom-riscv.elf elf32-littleriscv)

.comment        0x00000000       0x21
 .comment       0x00000000       0x21 /tmp/ccIUcI9t.o
                                 0x10 (size before relaxing)
 .comment       0x00000021       0x10 /tmp/ccmkV7yr.o
 .comment       0x00000021       0x10 /tmp/ccpgEVRG.o
 .comment       0x00000021       0x10 /tmp/cc4ktsDS.o
 .comment       0x00000021       0x10 /tmp/ccgU7jdx.o
 .comment       0x00000021       0x10 /tmp/ccjHmZfx.o
 .comment       0x00000021       0x10 /tmp/cccIdlRp.o
 .comment       0x00000021       0x10 /tmp/ccUtj4vl.o
 .comment       0x00000021       0x10 /tmp/ccKCxv9t.o
 .comment       0x00000021       0x10 /tmp/ccEARxVL.o
 .comment       0x00000021       0x10 /tmp/ccmjtV4p.o
 .comment       0x00000021       0x10 /tmp/cc0sJo8D.o
 .comment       0x00000021       0x10 /tmp/ccXiNted.o
 .comment       0x00000021       0x10 /tmp/ccKIE5CM.o
 .comment       0x00000021       0x10 /tmp/cc1eAt7H.o
 .comment       0x00000021       0x10 /tmp/ccfLgswY.o
 .comment       0x00000021       0x10 /tmp/ccUIbcSk.o
 .comment       0x00000021       0x10 /tmp/ccvDkeA0.o
 .comment       0x00000021       0x10 /tmp/cclH31lB.o
 .comment       0x00000021       0x10 /tmp/cc3mgFQP.o
 .comment       0x00000021       0x10 /tmp/ccqpieuX.o
 .comment       0x00000021       0x10 /tmp/cczxoUUx.o
 .comment       0x00000021       0x10 /tmp/cc37mN0l.o
 .comment       0x00000021       0x10 /tmp/ccbT5xtP.o
 .comment       0x00000021       0x10 /tmp/cckymBR5.o
 .comment       0x00000021       0x10 /tmp/ccf8vVS2.o
 .comment       0x00000021       0x10 /tmp/ccj2wwR0.o
 .comment       0x00000021       0x10 /tmp/ccvd2S5m.o
 .comment       0x00000021       0x10 /tmp/cc1JYthu.o
 .comment       0x00000021       0x10 /tmp/ccmdsAPV.o
 .comment       0x00000021       0x10 /tmp/cclbtQ5a.o
 .comment       0x00000021       0x10 /tmp/ccsc2Jgi.o
 .comment       0x00000021       0x10 /tmp/ccVvVkCG.o
 .comment       0x00000021       0x10 /tmp/ccPJzS57.o
 .comment       0x00000021       0x10 /tmp/cc8iKbln.o
 .comment       0x00000021       0x10 /tmp/ccdfhlmN.o
 .comment       0x00000021       0x10 /tmp/cc3sh9yo.o
 .comment       0x00000021       0x10 /tmp/ccvMH7AX.o
 .comment       0x00000021       0x10 /tmp/cccIYygE.o
 .comment       0x00000021       0x10 /tmp/ccwKsAYB.o
 .comment       0x00000021       0x10 /tmp/cc5i2vm6.o
 .comment       0x00000021       0x10 /tmp/ccf0NvUc.o
 .comment       0x00000021       0x10 /tmp/cc60vALi.o
 .comment       0x00000021       0x10 /tmp/ccof1MZ4.o
 .comment       0x00000021       0x10 /tmp/ccUvJ9IP.o
 .comment       0x00000021       0x10 /tmp/cchLfgF1.o
 .comment       0x00000021       0x10 /tmp/ccmkZrYQ.o
 .comment       0x00000021       0x10 /tmp/ccTxiJKs.o
 .comment       0x00000021       0x10 /tmp/ccGmmR0A.o
 .comment       0x00000021       0x10 /tmp/ccUXxFQp.o
 .comment       0x00000021       0x10 /tmp/cckYeBJT.o
 .comment       0x00000021       0x10 /tmp/ccj4PUoF.o
 .comment       0x00000021       0x10 /tmp/ccp2R3Ps.o
 .comment       0x00000021       0x10 /tmp/ccAXYIlt.o
 .comment       0x00000021       0x10 /tmp/cc7CcWHw.o
 .comment       0x00000021       0x10 /tmp/ccA3sui6.o
 .comment       0x00000021       0x10 /tmp/ccx6M4gp.o
 .comment       0x00000021       0x10 /tmp/ccb1royM.o
 .comment       0x00000021       0x10 /tmp/cchsEYcK.o
 .comment       0x00000021       0x10 /tmp/cc9bKNsH.o
 .comment       0x00000021       0x10 /tmp/ccGzfaEn.o
 .comment       0x00000021       0x10 /tmp/ccucBjw5.o
 .comment       0x00000021       0x10 /tmp/cco7SOxs.o
 .comment       0x00000021       0x13 /prog/riscv/lib/gcc/riscv64-unknown-elf/14.2.0/../../../../riscv64-unknown-elf/lib/rv32im_zicsr/ilp32/libc_nano.a(libc_a-abs.o)
 .comment       0x00000021       0x13 /prog/riscv/lib/gcc/riscv64-unknown-elf/14.2.0/../../../../riscv64-unknown-elf/lib/rv32im_zicsr/ilp32/libc_nano.a(libc_a-atoi.o)
 .comment       0x00000021       0x13 /prog/riscv/lib/gcc/riscv64-unknown-elf/14.2.0/../../../../riscv64-unknown-elf/lib/rv32im_zicsr/ilp32/libc_nano.a(libc_a-calloc.o)
 .comment       0x00000021       0x13 /prog/riscv/lib/gcc/riscv64-unknown-elf/14.2.0/../../../../riscv64-unknown-elf/lib/rv32im_zicsr/ilp32/libc_nano.a(libc_a-callocr.o)
 .comment       0x00000021       0x13 /prog/riscv/lib/gcc/riscv64-unknown-elf/14.2.0/../../../../riscv64-unknown-elf/lib/rv32im_zicsr/ilp32/libc_nano.a(libc_a-exit.o)
 .comment       0x00000021       0x13 /prog/riscv/lib/gcc/riscv64-unknown-elf/14.2.0/../../../../riscv64-unknown-elf/lib/rv32im_zicsr/ilp32/libc_nano.a(libc_a-malloc.o)
 .comment       0x00000021       0x13 /prog/riscv/lib/gcc/riscv64-unknown-elf/14.2.0/../../../../riscv64-unknown-elf/lib/rv32im_zicsr/ilp32/libc_nano.a(libc_a-mallocr.o)
 .comment       0x00000021       0x13 /prog/riscv/lib/gcc/riscv64-unknown-elf/14.2.0/../../../../riscv64-unknown-elf/lib/rv32im_zicsr/ilp32/libc_nano.a(libc_a-mlock.o)
 .comment       0x00000021       0x13 /prog/riscv/lib/gcc/riscv64-unknown-elf/14.2.0/../../../../riscv64-unknown-elf/lib/rv32im_zicsr/ilp32/libc_nano.a(libc_a-realloc.o)
 .comment       0x00000021       0x13 /prog/riscv/lib/gcc/riscv64-unknown-elf/14.2.0/../../../../riscv64-unknown-elf/lib/rv32im_zicsr/ilp32/libc_nano.a(libc_a-reallocr.o)
 .comment       0x00000021       0x13 /prog/riscv/lib/gcc/riscv64-unknown-elf/14.2.0/../../../../riscv64-unknown-elf/lib/rv32im_zicsr/ilp32/libc_nano.a(libc_a-strtol.o)
 .comment       0x00000021       0x13 /prog/riscv/lib/gcc/riscv64-unknown-elf/14.2.0/../../../../riscv64-unknown-elf/lib/rv32im_zicsr/ilp32/libc_nano.a(libc_a-ctype_.o)
 .comment       0x00000021       0x13 /prog/riscv/lib/gcc/riscv64-unknown-elf/14.2.0/../../../../riscv64-unknown-elf/lib/rv32im_zicsr/ilp32/libc_nano.a(libc_a-nano-vfprintf.o)
 .comment       0x00000021       0x13 /prog/riscv/lib/gcc/riscv64-unknown-elf/14.2.0/../../../../riscv64-unknown-elf/lib/rv32im_zicsr/ilp32/libc_nano.a(libc_a-nano-vfprintf_i.o)
 .comment       0x00000021       0x13 /prog/riscv/lib/gcc/riscv64-unknown-elf/14.2.0/../../../../riscv64-unknown-elf/lib/rv32im_zicsr/ilp32/libc_nano.a(libc_a-fclose.o)
 .comment       0x00000021       0x13 /prog/riscv/lib/gcc/riscv64-unknown-elf/14.2.0/../../../../riscv64-unknown-elf/lib/rv32im_zicsr/ilp32/libc_nano.a(libc_a-fflush.o)
 .comment       0x00000021       0x13 /prog/riscv/lib/gcc/riscv64-unknown-elf/14.2.0/../../../../riscv64-unknown-elf/lib/rv32im_zicsr/ilp32/libc_nano.a(libc_a-findfp.o)
 .comment       0x00000021       0x13 /prog/riscv/lib/gcc/riscv64-unknown-elf/14.2.0/../../../../riscv64-unknown-elf/lib/rv32im_zicsr/ilp32/libc_nano.a(libc_a-fopen.o)
 .comment       0x00000021       0x13 /prog/riscv/lib/gcc/riscv64-unknown-elf/14.2.0/../../../../riscv64-unknown-elf/lib/rv32im_zicsr/ilp32/libc_nano.a(libc_a-fprintf.o)
 .comment       0x00000021       0x13 /prog/riscv/lib/gcc/riscv64-unknown-elf/14.2.0/../../../../riscv64-unknown-elf/lib/rv32im_zicsr/ilp32/libc_nano.a(libc_a-fscanf.o)
 .comment       0x00000021       0x13 /prog/riscv/lib/gcc/riscv64-unknown-elf/14.2.0/../../../../riscv64-unknown-elf/lib/rv32im_zicsr/ilp32/libc_nano.a(libc_a-fseek.o)
 .comment       0x00000021       0x13 /prog/riscv/lib/gcc/riscv64-unknown-elf/14.2.0/../../../../riscv64-unknown-elf/lib/rv32im_zicsr/ilp32/libc_nano.a(libc_a-fwalk.o)
 .comment       0x00000021       0x13 /prog/riscv/lib/gcc/riscv64-unknown-elf/14.2.0/../../../../riscv64-unknown-elf/lib/rv32im_zicsr/ilp32/libc_nano.a(libc_a-printf.o)
 .comment       0x00000021       0x13 /prog/riscv/lib/gcc/riscv64-unknown-elf/14.2.0/../../../../riscv64-unknown-elf/lib/rv32im_zicsr/ilp32/libc_nano.a(libc_a-setbuf.o)
 .comment       0x00000021       0x13 /prog/riscv/lib/gcc/riscv64-unknown-elf/14.2.0/../../../../riscv64-unknown-elf/lib/rv32im_zicsr/ilp32/libc_nano.a(libc_a-setvbuf.o)
 .comment       0x00000021       0x13 /prog/riscv/lib/gcc/riscv64-unknown-elf/14.2.0/../../../../riscv64-unknown-elf/lib/rv32im_zicsr/ilp32/libc_nano.a(libc_a-sprintf.o)
 .comment       0x00000021       0x13 /prog/riscv/lib/gcc/riscv64-unknown-elf/14.2.0/../../../../riscv64-unknown-elf/lib/rv32im_zicsr/ilp32/libc_nano.a(libc_a-sscanf.o)
 .comment       0x00000021       0x13 /prog/riscv/lib/gcc/riscv64-unknown-elf/14.2.0/../../../../riscv64-unknown-elf/lib/rv32im_zicsr/ilp32/libc_nano.a(libc_a-stdio.o)
 .comment       0x00000021       0x13 /prog/riscv/lib/gcc/riscv64-unknown-elf/14.2.0/../../../../riscv64-unknown-elf/lib/rv32im_zicsr/ilp32/libc_nano.a(libc_a-wbuf.o)
 .comment       0x00000021       0x13 /prog/riscv/lib/gcc/riscv64-unknown-elf/14.2.0/../../../../riscv64-unknown-elf/lib/rv32im_zicsr/ilp32/libc_nano.a(libc_a-wsetup.o)
 .comment       0x00000021       0x13 /prog/riscv/lib/gcc/riscv64-unknown-elf/14.2.0/../../../../riscv64-unknown-elf/lib/rv32im_zicsr/ilp32/libc_nano.a(libc_a-fseeko.o)
 .comment       0x00000021       0x13 /prog/riscv/lib/gcc/riscv64-unknown-elf/14.2.0/../../../../riscv64-unknown-elf/lib/rv32im_zicsr/ilp32/libc_nano.a(libc_a-memchr.o)
 .comment       0x00000021       0x13 /prog/riscv/lib/gcc/riscv64-unknown-elf/14.2.0/../../../../riscv64-unknown-elf/lib/rv32im_zicsr/ilp32/libc_nano.a(libc_a-strcasecmp.o)
 .comment       0x00000021       0x13 /prog/riscv/lib/gcc/riscv64-unknown-elf/14.2.0/../../../../riscv64-unknown-elf/lib/rv32im_zicsr/ilp32/libc_nano.a(libc_a-strncasecmp.o)
 .comment       0x00000021       0x13 /prog/riscv/lib/gcc/riscv64-unknown-elf/14.2.0/../../../../riscv64-unknown-elf/lib/rv32im_zicsr/ilp32/libc_nano.a(libc_a-strncmp.o)
 .comment       0x00000021       0x13 /prog/riscv/lib/gcc/riscv64-unknown-elf/14.2.0/../../../../riscv64-unknown-elf/lib/rv32im_zicsr/ilp32/libc_nano.a(libc_a-strncpy.o)
 .comment       0x00000021       0x13 /prog/riscv/lib/gcc/riscv64-unknown-elf/14.2.0/../../../../riscv64-unknown-elf/lib/rv32im_zicsr/ilp32/libc_nano.a(libc_a-closer.o)
 .comment       0x00000021       0x13 /prog/riscv/lib/gcc/riscv64-unknown-elf/14.2.0/../../../../riscv64-unknown-elf/lib/rv32im_zicsr/ilp32/libc_nano.a(libc_a-reent.o)
 .comment       0x00000021       0x13 /prog/riscv/lib/gcc/riscv64-unknown-elf/14.2.0/../../../../riscv64-unknown-elf/lib/rv32im_zicsr/ilp32/libc_nano.a(libc_a-impure.o)
 .comment       0x00000021       0x13 /prog/riscv/lib/gcc/riscv64-unknown-elf/14.2.0/../../../../riscv64-unknown-elf/lib/rv32im_zicsr/ilp32/libc_nano.a(libc_a-lseekr.o)
 .comment       0x00000021       0x13 /prog/riscv/lib/gcc/riscv64-unknown-elf/14.2.0/../../../../riscv64-unknown-elf/lib/rv32im_zicsr/ilp32/libc_nano.a(libc_a-openr.o)
 .comment       0x00000021       0x13 /prog/riscv/lib/gcc/riscv64-unknown-elf/14.2.0/../../../../riscv64-unknown-elf/lib/rv32im_zicsr/ilp32/libc_nano.a(libc_a-readr.o)
 .comment       0x00000021       0x13 /prog/riscv/lib/gcc/riscv64-unknown-elf/14.2.0/../../../../riscv64-unknown-elf/lib/rv32im_zicsr/ilp32/libc_nano.a(libc_a-sbrkr.o)
 .comment       0x00000021       0x13 /prog/riscv/lib/gcc/riscv64-unknown-elf/14.2.0/../../../../riscv64-unknown-elf/lib/rv32im_zicsr/ilp32/libc_nano.a(libc_a-writer.o)
 .comment       0x00000021       0x13 /prog/riscv/lib/gcc/riscv64-unknown-elf/14.2.0/../../../../riscv64-unknown-elf/lib/rv32im_zicsr/ilp32/libc_nano.a(libc_a-errno.o)
 .comment       0x00000021       0x13 /prog/riscv/lib/gcc/riscv64-unknown-elf/14.2.0/../../../../riscv64-unknown-elf/lib/rv32im_zicsr/ilp32/libc_nano.a(libc_a-sysclose.o)
 .comment       0x00000021       0x13 /prog/riscv/lib/gcc/riscv64-unknown-elf/14.2.0/../../../../riscv64-unknown-elf/lib/rv32im_zicsr/ilp32/libc_nano.a(libc_a-sysfstat.o)
 .comment       0x00000021       0x13 /prog/riscv/lib/gcc/riscv64-unknown-elf/14.2.0/../../../../riscv64-unknown-elf/lib/rv32im_zicsr/ilp32/libc_nano.a(libc_a-syslseek.o)
 .comment       0x00000021       0x13 /prog/riscv/lib/gcc/riscv64-unknown-elf/14.2.0/../../../../riscv64-unknown-elf/lib/rv32im_zicsr/ilp32/libc_nano.a(libc_a-sysopen.o)
 .comment       0x00000021       0x13 /prog/riscv/lib/gcc/riscv64-unknown-elf/14.2.0/../../../../riscv64-unknown-elf/lib/rv32im_zicsr/ilp32/libc_nano.a(libc_a-sysread.o)
 .comment       0x00000021       0x13 /prog/riscv/lib/gcc/riscv64-unknown-elf/14.2.0/../../../../riscv64-unknown-elf/lib/rv32im_zicsr/ilp32/libc_nano.a(libc_a-sysstat.o)
 .comment       0x00000021       0x13 /prog/riscv/lib/gcc/riscv64-unknown-elf/14.2.0/../../../../riscv64-unknown-elf/lib/rv32im_zicsr/ilp32/libc_nano.a(libc_a-syswrite.o)
 .comment       0x00000021       0x13 /prog/riscv/lib/gcc/riscv64-unknown-elf/14.2.0/../../../../riscv64-unknown-elf/lib/rv32im_zicsr/ilp32/libc_nano.a(libc_a-strlen.o)
 .comment       0x00000021       0x13 /prog/riscv/lib/gcc/riscv64-unknown-elf/14.2.0/../../../../riscv64-unknown-elf/lib/rv32im_zicsr/ilp32/libc_nano.a(libc_a-strcpy.o)
 .comment       0x00000021       0x13 /prog/riscv/lib/gcc/riscv64-unknown-elf/14.2.0/../../../../riscv64-unknown-elf/lib/rv32im_zicsr/ilp32/libc_nano.a(libc_a-freer.o)
 .comment       0x00000021       0x13 /prog/riscv/lib/gcc/riscv64-unknown-elf/14.2.0/../../../../riscv64-unknown-elf/lib/rv32im_zicsr/ilp32/libc_nano.a(libc_a-msizer.o)
 .comment       0x00000021       0x13 /prog/riscv/lib/gcc/riscv64-unknown-elf/14.2.0/../../../../riscv64-unknown-elf/lib/rv32im_zicsr/ilp32/libc_nano.a(libc_a-nano-svfprintf.o)
 .comment       0x00000021       0x13 /prog/riscv/lib/gcc/riscv64-unknown-elf/14.2.0/../../../../riscv64-unknown-elf/lib/rv32im_zicsr/ilp32/libc_nano.a(libc_a-nano-svfscanf.o)
 .comment       0x00000021       0x13 /prog/riscv/lib/gcc/riscv64-unknown-elf/14.2.0/../../../../riscv64-unknown-elf/lib/rv32im_zicsr/ilp32/libc_nano.a(libc_a-nano-vfscanf.o)
 .comment       0x00000021       0x13 /prog/riscv/lib/gcc/riscv64-unknown-elf/14.2.0/../../../../riscv64-unknown-elf/lib/rv32im_zicsr/ilp32/libc_nano.a(libc_a-nano-vfscanf_i.o)
 .comment       0x00000021       0x13 /prog/riscv/lib/gcc/riscv64-unknown-elf/14.2.0/../../../../riscv64-unknown-elf/lib/rv32im_zicsr/ilp32/libc_nano.a(libc_a-flags.o)
 .comment       0x00000021       0x13 /prog/riscv/lib/gcc/riscv64-unknown-elf/14.2.0/../../../../riscv64-unknown-elf/lib/rv32im_zicsr/ilp32/libc_nano.a(libc_a-makebuf.o)
 .comment       0x00000021       0x13 /prog/riscv/lib/gcc/riscv64-unknown-elf/14.2.0/../../../../riscv64-unknown-elf/lib/rv32im_zicsr/ilp32/libc_nano.a(libc_a-refill.o)
 .comment       0x00000021       0x13 /prog/riscv/lib/gcc/riscv64-unknown-elf/14.2.0/../../../../riscv64-unknown-elf/lib/rv32im_zicsr/ilp32/libc_nano.a(libc_a-sccl.o)
 .comment       0x00000021       0x13 /prog/riscv/lib/gcc/riscv64-unknown-elf/14.2.0/../../../../riscv64-unknown-elf/lib/rv32im_zicsr/ilp32/libc_nano.a(libc_a-ungetc.o)
 .comment       0x00000021       0x13 /prog/riscv/lib/gcc/riscv64-unknown-elf/14.2.0/../../../../riscv64-unknown-elf/lib/rv32im_zicsr/ilp32/libc_nano.a(libc_a-fstatr.o)
 .comment       0x00000021       0x13 /prog/riscv/lib/gcc/riscv64-unknown-elf/14.2.0/../../../../riscv64-unknown-elf/lib/rv32im_zicsr/ilp32/libc_nano.a(libc_a-isattyr.o)
 .comment       0x00000021       0x13 /prog/riscv/lib/gcc/riscv64-unknown-elf/14.2.0/../../../../riscv64-unknown-elf/lib/rv32im_zicsr/ilp32/libc_nano.a(libc_a-statr.o)
 .comment       0x00000021       0x13 /prog/riscv/lib/gcc/riscv64-unknown-elf/14.2.0/../../../../riscv64-unknown-elf/lib/rv32im_zicsr/ilp32/libc_nano.a(libc_a-strtoul.o)
 .comment       0x00000021       0x10 /prog/riscv/lib/gcc/riscv64-unknown-elf/14.2.0/rv32im_zicsr/ilp32/libgcc.a(_divdi3.o)
 .comment       0x00000021       0x10 /prog/riscv/lib/gcc/riscv64-unknown-elf/14.2.0/rv32im_zicsr/ilp32/libgcc.a(_clz.o)
 .comment       0x00000021       0x13 /prog/riscv/lib/gcc/riscv64-unknown-elf/14.2.0/../../../../riscv64-unknown-elf/lib/rv32im_zicsr/ilp32/libnosys.a(_exit.o)

.note.GNU-stack
                0x00000000        0x0
 .note.GNU-stack
                0x00000000        0x0 /tmp/ccIUcI9t.o
 .note.GNU-stack
                0x00000000        0x0 /tmp/ccmkV7yr.o
 .note.GNU-stack
                0x00000000        0x0 /tmp/ccpgEVRG.o
 .note.GNU-stack
                0x00000000        0x0 /tmp/cc4ktsDS.o
 .note.GNU-stack
                0x00000000        0x0 /tmp/ccgU7jdx.o
 .note.GNU-stack
                0x00000000        0x0 /tmp/ccjHmZfx.o
 .note.GNU-stack
                0x00000000        0x0 /tmp/cccIdlRp.o
 .note.GNU-stack
                0x00000000        0x0 /tmp/ccUtj4vl.o
 .note.GNU-stack
                0x00000000        0x0 /tmp/ccKCxv9t.o
 .note.GNU-stack
                0x00000000        0x0 /tmp/ccEARxVL.o
 .note.GNU-stack
                0x00000000        0x0 /tmp/ccmjtV4p.o
 .note.GNU-stack
                0x00000000        0x0 /tmp/cc0sJo8D.o
 .note.GNU-stack
                0x00000000        0x0 /tmp/ccXiNted.o
 .note.GNU-stack
                0x00000000        0x0 /tmp/ccKIE5CM.o
 .note.GNU-stack
                0x00000000        0x0 /tmp/cc1eAt7H.o
 .note.GNU-stack
                0x00000000        0x0 /tmp/ccfLgswY.o
 .note.GNU-stack
                0x00000000        0x0 /tmp/ccUIbcSk.o
 .note.GNU-stack
                0x00000000        0x0 /tmp/ccvDkeA0.o
 .note.GNU-stack
                0x00000000        0x0 /tmp/cclH31lB.o
 .note.GNU-stack
                0x00000000        0x0 /tmp/cc3mgFQP.o
 .note.GNU-stack
                0x00000000        0x0 /tmp/ccqpieuX.o
 .note.GNU-stack
                0x00000000        0x0 /tmp/cczxoUUx.o
 .note.GNU-stack
                0x00000000        0x0 /tmp/cc37mN0l.o
 .note.GNU-stack
                0x00000000        0x0 /tmp/ccbT5xtP.o
 .note.GNU-stack
                0x00000000        0x0 /tmp/cckymBR5.o
 .note.GNU-stack
                0x00000000        0x0 /tmp/ccf8vVS2.o
 .note.GNU-stack
                0x00000000        0x0 /tmp/ccj2wwR0.o
 .note.GNU-stack
                0x00000000        0x0 /tmp/ccvd2S5m.o
 .note.GNU-stack
                0x00000000        0x0 /tmp/cc1JYthu.o
 .note.GNU-stack
                0x00000000        0x0 /tmp/ccmdsAPV.o
 .note.GNU-stack
                0x00000000        0x0 /tmp/cclbtQ5a.o
 .note.GNU-stack
                0x00000000        0x0 /tmp/ccsc2Jgi.o
 .note.GNU-stack
                0x00000000        0x0 /tmp/ccVvVkCG.o
 .note.GNU-stack
                0x00000000        0x0 /tmp/ccPJzS57.o
 .note.GNU-stack
                0x00000000        0x0 /tmp/cc8iKbln.o
 .note.GNU-stack
                0x00000000        0x0 /tmp/ccdfhlmN.o
 .note.GNU-stack
                0x00000000        0x0 /tmp/cc3sh9yo.o
 .note.GNU-stack
                0x00000000        0x0 /tmp/ccvMH7AX.o
 .note.GNU-stack
                0x00000000        0x0 /tmp/cccIYygE.o
 .note.GNU-stack
                0x00000000        0x0 /tmp/ccwKsAYB.o
 .note.GNU-stack
                0x00000000        0x0 /tmp/cc5i2vm6.o
 .note.GNU-stack
                0x00000000        0x0 /tmp/ccf0NvUc.o
 .note.GNU-stack
                0x00000000        0x0 /tmp/cc60vALi.o
 .note.GNU-stack
                0x00000000        0x0 /tmp/ccof1MZ4.o
 .note.GNU-stack
                0x00000000        0x0 /tmp/ccUvJ9IP.o
 .note.GNU-stack
                0x00000000        0x0 /tmp/cchLfgF1.o
 .note.GNU-stack
                0x00000000        0x0 /tmp/ccmkZrYQ.o
 .note.GNU-stack
                0x00000000        0x0 /tmp/ccTxiJKs.o
 .note.GNU-stack
                0x00000000        0x0 /tmp/ccGmmR0A.o
 .note.GNU-stack
                0x00000000        0x0 /tmp/ccUXxFQp.o
 .note.GNU-stack
                0x00000000        0x0 /tmp/cckYeBJT.o
 .note.GNU-stack
                0x00000000        0x0 /tmp/ccj4PUoF.o
 .note.GNU-stack
                0x00000000        0x0 /tmp/ccp2R3Ps.o
 .note.GNU-stack
                0x00000000        0x0 /tmp/ccAXYIlt.o
 .note.GNU-stack
                0x00000000        0x0 /tmp/cc7CcWHw.o
 .note.GNU-stack
                0x00000000        0x0 /tmp/ccA3sui6.o
 .note.GNU-stack
                0x00000000        0x0 /tmp/ccx6M4gp.o
 .note.GNU-stack
                0x00000000        0x0 /tmp/ccb1royM.o
 .note.GNU-stack
                0x00000000        0x0 /tmp/cchsEYcK.o
 .note.GNU-stack
                0x00000000        0x0 /tmp/cc9bKNsH.o
 .note.GNU-stack
                0x00000000        0x0 /tmp/ccGzfaEn.o
 .note.GNU-stack
                0x00000000        0x0 /tmp/ccucBjw5.o
 .note.GNU-stack
                0x00000000        0x0 /tmp/cco7SOxs.o
 .note.GNU-stack
                0x00000000        0x0 /prog/riscv/lib/gcc/riscv64-unknown-elf/14.2.0/../../../../riscv64-unknown-elf/lib/rv32im_zicsr/ilp32/libc_nano.a(libc_a-abs.o)
 .note.GNU-stack
                0x00000000        0x0 /prog/riscv/lib/gcc/riscv64-unknown-elf/14.2.0/../../../../riscv64-unknown-elf/lib/rv32im_zicsr/ilp32/libc_nano.a(libc_a-atoi.o)
 .note.GNU-stack
                0x00000000        0x0 /prog/riscv/lib/gcc/riscv64-unknown-elf/14.2.0/../../../../riscv64-unknown-elf/lib/rv32im_zicsr/ilp32/libc_nano.a(libc_a-calloc.o)
 .note.GNU-stack
                0x00000000        0x0 /prog/riscv/lib/gcc/riscv64-unknown-elf/14.2.0/../../../../riscv64-unknown-elf/lib/rv32im_zicsr/ilp32/libc_nano.a(libc_a-callocr.o)
 .note.GNU-stack
                0x00000000        0x0 /prog/riscv/lib/gcc/riscv64-unknown-elf/14.2.0/../../../../riscv64-unknown-elf/lib/rv32im_zicsr/ilp32/libc_nano.a(libc_a-exit.o)
 .note.GNU-stack
                0x00000000        0x0 /prog/riscv/lib/gcc/riscv64-unknown-elf/14.2.0/../../../../riscv64-unknown-elf/lib/rv32im_zicsr/ilp32/libc_nano.a(libc_a-malloc.o)
 .note.GNU-stack
                0x00000000        0x0 /prog/riscv/lib/gcc/riscv64-unknown-elf/14.2.0/../../../../riscv64-unknown-elf/lib/rv32im_zicsr/ilp32/libc_nano.a(libc_a-mallocr.o)
 .note.GNU-stack
                0x00000000        0x0 /prog/riscv/lib/gcc/riscv64-unknown-elf/14.2.0/../../../../riscv64-unknown-elf/lib/rv32im_zicsr/ilp32/libc_nano.a(libc_a-mlock.o)
 .note.GNU-stack
                0x00000000        0x0 /prog/riscv/lib/gcc/riscv64-unknown-elf/14.2.0/../../../../riscv64-unknown-elf/lib/rv32im_zicsr/ilp32/libc_nano.a(libc_a-realloc.o)
 .note.GNU-stack
                0x00000000        0x0 /prog/riscv/lib/gcc/riscv64-unknown-elf/14.2.0/../../../../riscv64-unknown-elf/lib/rv32im_zicsr/ilp32/libc_nano.a(libc_a-reallocr.o)
 .note.GNU-stack
                0x00000000        0x0 /prog/riscv/lib/gcc/riscv64-unknown-elf/14.2.0/../../../../riscv64-unknown-elf/lib/rv32im_zicsr/ilp32/libc_nano.a(libc_a-strtol.o)
 .note.GNU-stack
                0x00000000        0x0 /prog/riscv/lib/gcc/riscv64-unknown-elf/14.2.0/../../../../riscv64-unknown-elf/lib/rv32im_zicsr/ilp32/libc_nano.a(libc_a-ctype_.o)
 .note.GNU-stack
                0x00000000        0x0 /prog/riscv/lib/gcc/riscv64-unknown-elf/14.2.0/../../../../riscv64-unknown-elf/lib/rv32im_zicsr/ilp32/libc_nano.a(libc_a-nano-vfprintf.o)
 .note.GNU-stack
                0x00000000        0x0 /prog/riscv/lib/gcc/riscv64-unknown-elf/14.2.0/../../../../riscv64-unknown-elf/lib/rv32im_zicsr/ilp32/libc_nano.a(libc_a-nano-vfprintf_i.o)
 .note.GNU-stack
                0x00000000        0x0 /prog/riscv/lib/gcc/riscv64-unknown-elf/14.2.0/../../../../riscv64-unknown-elf/lib/rv32im_zicsr/ilp32/libc_nano.a(libc_a-fclose.o)
 .note.GNU-stack
                0x00000000        0x0 /prog/riscv/lib/gcc/riscv64-unknown-elf/14.2.0/../../../../riscv64-unknown-elf/lib/rv32im_zicsr/ilp32/libc_nano.a(libc_a-fflush.o)
 .note.GNU-stack
                0x00000000        0x0 /prog/riscv/lib/gcc/riscv64-unknown-elf/14.2.0/../../../../riscv64-unknown-elf/lib/rv32im_zicsr/ilp32/libc_nano.a(libc_a-findfp.o)
 .note.GNU-stack
                0x00000000        0x0 /prog/riscv/lib/gcc/riscv64-unknown-elf/14.2.0/../../../../riscv64-unknown-elf/lib/rv32im_zicsr/ilp32/libc_nano.a(libc_a-fopen.o)
 .note.GNU-stack
                0x00000000        0x0 /prog/riscv/lib/gcc/riscv64-unknown-elf/14.2.0/../../../../riscv64-unknown-elf/lib/rv32im_zicsr/ilp32/libc_nano.a(libc_a-fprintf.o)
 .note.GNU-stack
                0x00000000        0x0 /prog/riscv/lib/gcc/riscv64-unknown-elf/14.2.0/../../../../riscv64-unknown-elf/lib/rv32im_zicsr/ilp32/libc_nano.a(libc_a-fscanf.o)
 .note.GNU-stack
                0x00000000        0x0 /prog/riscv/lib/gcc/riscv64-unknown-elf/14.2.0/../../../../riscv64-unknown-elf/lib/rv32im_zicsr/ilp32/libc_nano.a(libc_a-fseek.o)
 .note.GNU-stack
                0x00000000        0x0 /prog/riscv/lib/gcc/riscv64-unknown-elf/14.2.0/../../../../riscv64-unknown-elf/lib/rv32im_zicsr/ilp32/libc_nano.a(libc_a-fwalk.o)
 .note.GNU-stack
                0x00000000        0x0 /prog/riscv/lib/gcc/riscv64-unknown-elf/14.2.0/../../../../riscv64-unknown-elf/lib/rv32im_zicsr/ilp32/libc_nano.a(libc_a-printf.o)
 .note.GNU-stack
                0x00000000        0x0 /prog/riscv/lib/gcc/riscv64-unknown-elf/14.2.0/../../../../riscv64-unknown-elf/lib/rv32im_zicsr/ilp32/libc_nano.a(libc_a-setbuf.o)
 .note.GNU-stack
                0x00000000        0x0 /prog/riscv/lib/gcc/riscv64-unknown-elf/14.2.0/../../../../riscv64-unknown-elf/lib/rv32im_zicsr/ilp32/libc_nano.a(libc_a-setvbuf.o)
 .note.GNU-stack
                0x00000000        0x0 /prog/riscv/lib/gcc/riscv64-unknown-elf/14.2.0/../../../../riscv64-unknown-elf/lib/rv32im_zicsr/ilp32/libc_nano.a(libc_a-sprintf.o)
 .note.GNU-stack
                0x00000000        0x0 /prog/riscv/lib/gcc/riscv64-unknown-elf/14.2.0/../../../../riscv64-unknown-elf/lib/rv32im_zicsr/ilp32/libc_nano.a(libc_a-sscanf.o)
 .note.GNU-stack
                0x00000000        0x0 /prog/riscv/lib/gcc/riscv64-unknown-elf/14.2.0/../../../../riscv64-unknown-elf/lib/rv32im_zicsr/ilp32/libc_nano.a(libc_a-stdio.o)
 .note.GNU-stack
                0x00000000        0x0 /prog/riscv/lib/gcc/riscv64-unknown-elf/14.2.0/../../../../riscv64-unknown-elf/lib/rv32im_zicsr/ilp32/libc_nano.a(libc_a-wbuf.o)
 .note.GNU-stack
                0x00000000        0x0 /prog/riscv/lib/gcc/riscv64-unknown-elf/14.2.0/../../../../riscv64-unknown-elf/lib/rv32im_zicsr/ilp32/libc_nano.a(libc_a-wsetup.o)
 .note.GNU-stack
                0x00000000        0x0 /prog/riscv/lib/gcc/riscv64-unknown-elf/14.2.0/../../../../riscv64-unknown-elf/lib/rv32im_zicsr/ilp32/libc_nano.a(libc_a-fseeko.o)
 .note.GNU-stack
                0x00000000        0x0 /prog/riscv/lib/gcc/riscv64-unknown-elf/14.2.0/../../../../riscv64-unknown-elf/lib/rv32im_zicsr/ilp32/libc_nano.a(libc_a-memchr.o)
 .note.GNU-stack
                0x00000000        0x0 /prog/riscv/lib/gcc/riscv64-unknown-elf/14.2.0/../../../../riscv64-unknown-elf/lib/rv32im_zicsr/ilp32/libc_nano.a(libc_a-strcasecmp.o)
 .note.GNU-stack
                0x00000000        0x0 /prog/riscv/lib/gcc/riscv64-unknown-elf/14.2.0/../../../../riscv64-unknown-elf/lib/rv32im_zicsr/ilp32/libc_nano.a(libc_a-strncasecmp.o)
 .note.GNU-stack
                0x00000000        0x0 /prog/riscv/lib/gcc/riscv64-unknown-elf/14.2.0/../../../../riscv64-unknown-elf/lib/rv32im_zicsr/ilp32/libc_nano.a(libc_a-strncmp.o)
 .note.GNU-stack
                0x00000000        0x0 /prog/riscv/lib/gcc/riscv64-unknown-elf/14.2.0/../../../../riscv64-unknown-elf/lib/rv32im_zicsr/ilp32/libc_nano.a(libc_a-strncpy.o)
 .note.GNU-stack
                0x00000000        0x0 /prog/riscv/lib/gcc/riscv64-unknown-elf/14.2.0/../../../../riscv64-unknown-elf/lib/rv32im_zicsr/ilp32/libc_nano.a(libc_a-closer.o)
 .note.GNU-stack
                0x00000000        0x0 /prog/riscv/lib/gcc/riscv64-unknown-elf/14.2.0/../../../../riscv64-unknown-elf/lib/rv32im_zicsr/ilp32/libc_nano.a(libc_a-reent.o)
 .note.GNU-stack
                0x00000000        0x0 /prog/riscv/lib/gcc/riscv64-unknown-elf/14.2.0/../../../../riscv64-unknown-elf/lib/rv32im_zicsr/ilp32/libc_nano.a(libc_a-impure.o)
 .note.GNU-stack
                0x00000000        0x0 /prog/riscv/lib/gcc/riscv64-unknown-elf/14.2.0/../../../../riscv64-unknown-elf/lib/rv32im_zicsr/ilp32/libc_nano.a(libc_a-lseekr.o)
 .note.GNU-stack
                0x00000000        0x0 /prog/riscv/lib/gcc/riscv64-unknown-elf/14.2.0/../../../../riscv64-unknown-elf/lib/rv32im_zicsr/ilp32/libc_nano.a(libc_a-openr.o)
 .note.GNU-stack
                0x00000000        0x0 /prog/riscv/lib/gcc/riscv64-unknown-elf/14.2.0/../../../../riscv64-unknown-elf/lib/rv32im_zicsr/ilp32/libc_nano.a(libc_a-readr.o)
 .note.GNU-stack
                0x00000000        0x0 /prog/riscv/lib/gcc/riscv64-unknown-elf/14.2.0/../../../../riscv64-unknown-elf/lib/rv32im_zicsr/ilp32/libc_nano.a(libc_a-sbrkr.o)
 .note.GNU-stack
                0x00000000        0x0 /prog/riscv/lib/gcc/riscv64-unknown-elf/14.2.0/../../../../riscv64-unknown-elf/lib/rv32im_zicsr/ilp32/libc_nano.a(libc_a-writer.o)
 .note.GNU-stack
                0x00000000        0x0 /prog/riscv/lib/gcc/riscv64-unknown-elf/14.2.0/../../../../riscv64-unknown-elf/lib/rv32im_zicsr/ilp32/libc_nano.a(libc_a-errno.o)
 .note.GNU-stack
                0x00000000        0x0 /prog/riscv/lib/gcc/riscv64-unknown-elf/14.2.0/../../../../riscv64-unknown-elf/lib/rv32im_zicsr/ilp32/libc_nano.a(libc_a-sysclose.o)
 .note.GNU-stack
                0x00000000        0x0 /prog/riscv/lib/gcc/riscv64-unknown-elf/14.2.0/../../../../riscv64-unknown-elf/lib/rv32im_zicsr/ilp32/libc_nano.a(libc_a-sysfstat.o)
 .note.GNU-stack
                0x00000000        0x0 /prog/riscv/lib/gcc/riscv64-unknown-elf/14.2.0/../../../../riscv64-unknown-elf/lib/rv32im_zicsr/ilp32/libc_nano.a(libc_a-syslseek.o)
 .note.GNU-stack
                0x00000000        0x0 /prog/riscv/lib/gcc/riscv64-unknown-elf/14.2.0/../../../../riscv64-unknown-elf/lib/rv32im_zicsr/ilp32/libc_nano.a(libc_a-sysopen.o)
 .note.GNU-stack
                0x00000000        0x0 /prog/riscv/lib/gcc/riscv64-unknown-elf/14.2.0/../../../../riscv64-unknown-elf/lib/rv32im_zicsr/ilp32/libc_nano.a(libc_a-sysread.o)
 .note.GNU-stack
                0x00000000        0x0 /prog/riscv/lib/gcc/riscv64-unknown-elf/14.2.0/../../../../riscv64-unknown-elf/lib/rv32im_zicsr/ilp32/libc_nano.a(libc_a-sysstat.o)
 .note.GNU-stack
                0x00000000        0x0 /prog/riscv/lib/gcc/riscv64-unknown-elf/14.2.0/../../../../riscv64-unknown-elf/lib/rv32im_zicsr/ilp32/libc_nano.a(libc_a-syswrite.o)
 .note.GNU-stack
                0x00000000        0x0 /prog/riscv/lib/gcc/riscv64-unknown-elf/14.2.0/../../../../riscv64-unknown-elf/lib/rv32im_zicsr/ilp32/libc_nano.a(libc_a-strlen.o)
 .note.GNU-stack
                0x00000000        0x0 /prog/riscv/lib/gcc/riscv64-unknown-elf/14.2.0/../../../../riscv64-unknown-elf/lib/rv32im_zicsr/ilp32/libc_nano.a(libc_a-strcpy.o)
 .note.GNU-stack
                0x00000000        0x0 /prog/riscv/lib/gcc/riscv64-unknown-elf/14.2.0/../../../../riscv64-unknown-elf/lib/rv32im_zicsr/ilp32/libc_nano.a(libc_a-freer.o)
 .note.GNU-stack
                0x00000000        0x0 /prog/riscv/lib/gcc/riscv64-unknown-elf/14.2.0/../../../../riscv64-unknown-elf/lib/rv32im_zicsr/ilp32/libc_nano.a(libc_a-msizer.o)
 .note.GNU-stack
                0x00000000        0x0 /prog/riscv/lib/gcc/riscv64-unknown-elf/14.2.0/../../../../riscv64-unknown-elf/lib/rv32im_zicsr/ilp32/libc_nano.a(libc_a-nano-svfprintf.o)
 .note.GNU-stack
                0x00000000        0x0 /prog/riscv/lib/gcc/riscv64-unknown-elf/14.2.0/../../../../riscv64-unknown-elf/lib/rv32im_zicsr/ilp32/libc_nano.a(libc_a-nano-svfscanf.o)
 .note.GNU-stack
                0x00000000        0x0 /prog/riscv/lib/gcc/riscv64-unknown-elf/14.2.0/../../../../riscv64-unknown-elf/lib/rv32im_zicsr/ilp32/libc_nano.a(libc_a-nano-vfscanf.o)
 .note.GNU-stack
                0x00000000        0x0 /prog/riscv/lib/gcc/riscv64-unknown-elf/14.2.0/../../../../riscv64-unknown-elf/lib/rv32im_zicsr/ilp32/libc_nano.a(libc_a-nano-vfscanf_i.o)
 .note.GNU-stack
                0x00000000        0x0 /prog/riscv/lib/gcc/riscv64-unknown-elf/14.2.0/../../../../riscv64-unknown-elf/lib/rv32im_zicsr/ilp32/libc_nano.a(libc_a-flags.o)
 .note.GNU-stack
                0x00000000        0x0 /prog/riscv/lib/gcc/riscv64-unknown-elf/14.2.0/../../../../riscv64-unknown-elf/lib/rv32im_zicsr/ilp32/libc_nano.a(libc_a-makebuf.o)
 .note.GNU-stack
                0x00000000        0x0 /prog/riscv/lib/gcc/riscv64-unknown-elf/14.2.0/../../../../riscv64-unknown-elf/lib/rv32im_zicsr/ilp32/libc_nano.a(libc_a-refill.o)
 .note.GNU-stack
                0x00000000        0x0 /prog/riscv/lib/gcc/riscv64-unknown-elf/14.2.0/../../../../riscv64-unknown-elf/lib/rv32im_zicsr/ilp32/libc_nano.a(libc_a-sccl.o)
 .note.GNU-stack
                0x00000000        0x0 /prog/riscv/lib/gcc/riscv64-unknown-elf/14.2.0/../../../../riscv64-unknown-elf/lib/rv32im_zicsr/ilp32/libc_nano.a(libc_a-ungetc.o)
 .note.GNU-stack
                0x00000000        0x0 /prog/riscv/lib/gcc/riscv64-unknown-elf/14.2.0/../../../../riscv64-unknown-elf/lib/rv32im_zicsr/ilp32/libc_nano.a(libc_a-fstatr.o)
 .note.GNU-stack
                0x00000000        0x0 /prog/riscv/lib/gcc/riscv64-unknown-elf/14.2.0/../../../../riscv64-unknown-elf/lib/rv32im_zicsr/ilp32/libc_nano.a(libc_a-isattyr.o)
 .note.GNU-stack
                0x00000000        0x0 /prog/riscv/lib/gcc/riscv64-unknown-elf/14.2.0/../../../../riscv64-unknown-elf/lib/rv32im_zicsr/ilp32/libc_nano.a(libc_a-statr.o)
 .note.GNU-stack
                0x00000000        0x0 /prog/riscv/lib/gcc/riscv64-unknown-elf/14.2.0/../../../../riscv64-unknown-elf/lib/rv32im_zicsr/ilp32/libc_nano.a(libc_a-strtoul.o)
 .note.GNU-stack
                0x00000000        0x0 /prog/riscv/lib/gcc/riscv64-unknown-elf/14.2.0/rv32im_zicsr/ilp32/libgcc.a(_divdi3.o)
 .note.GNU-stack
                0x00000000        0x0 /prog/riscv/lib/gcc/riscv64-unknown-elf/14.2.0/rv32im_zicsr/ilp32/libgcc.a(_clz.o)
 .note.GNU-stack
                0x00000000        0x0 /prog/riscv/lib/gcc/riscv64-unknown-elf/14.2.0/../../../../riscv64-unknown-elf/lib/rv32im_zicsr/ilp32/libnosys.a(_exit.o)

.riscv.attributes
                0x00000000       0x37
 .riscv.attributes
                0x00000000       0x33 /tmp/ccIUcI9t.o
 .riscv.attributes
                0x00000033       0x33 /tmp/ccmkV7yr.o
 .riscv.attributes
                0x00000066       0x33 /tmp/ccpgEVRG.o
 .riscv.attributes
                0x00000099       0x33 /tmp/cc4ktsDS.o
 .riscv.attributes
                0x000000cc       0x33 /tmp/ccgU7jdx.o
 .riscv.attributes
                0x000000ff       0x33 /tmp/ccjHmZfx.o
 .riscv.attributes
                0x00000132       0x33 /tmp/cccIdlRp.o
 .riscv.attributes
                0x00000165       0x33 /tmp/ccUtj4vl.o
 .riscv.attributes
                0x00000198       0x33 /tmp/ccKCxv9t.o
 .riscv.attributes
                0x000001cb       0x33 /tmp/ccEARxVL.o
 .riscv.attributes
                0x000001fe       0x33 /tmp/ccmjtV4p.o
 .riscv.attributes
                0x00000231       0x33 /tmp/cc0sJo8D.o
 .riscv.attributes
                0x00000264       0x33 /tmp/ccXiNted.o
 .riscv.attributes
                0x00000297       0x33 /tmp/ccKIE5CM.o
 .riscv.attributes
                0x000002ca       0x33 /tmp/cc1eAt7H.o
 .riscv.attributes
                0x000002fd       0x33 /tmp/ccfLgswY.o
 .riscv.attributes
                0x00000330       0x33 /tmp/ccUIbcSk.o
 .riscv.attributes
                0x00000363       0x33 /tmp/ccvDkeA0.o
 .riscv.attributes
                0x00000396       0x33 /tmp/cclH31lB.o
 .riscv.attributes
                0x000003c9       0x33 /tmp/cc3mgFQP.o
 .riscv.attributes
                0x000003fc       0x33 /tmp/ccqpieuX.o
 .riscv.attributes
                0x0000042f       0x33 /tmp/cczxoUUx.o
 .riscv.attributes
                0x00000462       0x33 /tmp/cc37mN0l.o
 .riscv.attributes
                0x00000495       0x33 /tmp/ccbT5xtP.o
 .riscv.attributes
                0x000004c8       0x33 /tmp/cckymBR5.o
 .riscv.attributes
                0x000004fb       0x33 /tmp/ccf8vVS2.o
 .riscv.attributes
                0x0000052e       0x33 /tmp/ccj2wwR0.o
 .riscv.attributes
                0x00000561       0x33 /tmp/ccvd2S5m.o
 .riscv.attributes
                0x00000594       0x33 /tmp/cc1JYthu.o
 .riscv.attributes
                0x000005c7       0x33 /tmp/ccmdsAPV.o
 .riscv.attributes
                0x000005fa       0x33 /tmp/cclbtQ5a.o
 .riscv.attributes
                0x0000062d       0x33 /tmp/ccsc2Jgi.o
 .riscv.attributes
                0x00000660       0x33 /tmp/ccVvVkCG.o
 .riscv.attributes
                0x00000693       0x33 /tmp/ccPJzS57.o
 .riscv.attributes
                0x000006c6       0x33 /tmp/cc8iKbln.o
 .riscv.attributes
                0x000006f9       0x33 /tmp/ccdfhlmN.o
 .riscv.attributes
                0x0000072c       0x33 /tmp/cc3sh9yo.o
 .riscv.attributes
                0x0000075f       0x33 /tmp/ccvMH7AX.o
 .riscv.attributes
                0x00000792       0x33 /tmp/cccIYygE.o
 .riscv.attributes
                0x000007c5       0x33 /tmp/ccwKsAYB.o
 .riscv.attributes
                0x000007f8       0x33 /tmp/cc5i2vm6.o
 .riscv.attributes
                0x0000082b       0x33 /tmp/ccf0NvUc.o
 .riscv.attributes
                0x0000085e       0x33 /tmp/cc60vALi.o
 .riscv.attributes
                0x00000891       0x33 /tmp/ccof1MZ4.o
 .riscv.attributes
                0x000008c4       0x33 /tmp/ccUvJ9IP.o
 .riscv.attributes
                0x000008f7       0x33 /tmp/cchLfgF1.o
 .riscv.attributes
                0x0000092a       0x33 /tmp/ccmkZrYQ.o
 .riscv.attributes
                0x0000095d       0x33 /tmp/ccTxiJKs.o
 .riscv.attributes
                0x00000990       0x33 /tmp/ccGmmR0A.o
 .riscv.attributes
                0x000009c3       0x33 /tmp/ccUXxFQp.o
 .riscv.attributes
                0x000009f6       0x33 /tmp/cckYeBJT.o
 .riscv.attributes
                0x00000a29       0x33 /tmp/ccj4PUoF.o
 .riscv.attributes
                0x00000a5c       0x33 /tmp/ccp2R3Ps.o
 .riscv.attributes
                0x00000a8f       0x33 /tmp/ccAXYIlt.o
 .riscv.attributes
                0x00000ac2       0x33 /tmp/cc7CcWHw.o
 .riscv.attributes
                0x00000af5       0x37 /tmp/ccA3sui6.o
 .riscv.attributes
                0x00000b2c       0x33 /tmp/ccx6M4gp.o
 .riscv.attributes
                0x00000b5f       0x33 /tmp/ccb1royM.o
 .riscv.attributes
                0x00000b92       0x33 /tmp/cchsEYcK.o
 .riscv.attributes
                0x00000bc5       0x33 /tmp/cc9bKNsH.o
 .riscv.attributes
                0x00000bf8       0x33 /tmp/ccGzfaEn.o
 .riscv.attributes
                0x00000c2b       0x37 /tmp/ccucBjw5.o
 .riscv.attributes
                0x00000c62       0x33 /tmp/cco7SOxs.o
 .riscv.attributes
                0x00000c95       0x31 /tmp/ccaJXZd9.o
 .riscv.attributes
                0x00000cc6       0x33 /prog/riscv/lib/gcc/riscv64-unknown-elf/14.2.0/../../../../riscv64-unknown-elf/lib/rv32im_zicsr/ilp32/libc_nano.a(libc_a-abs.o)
 .riscv.attributes
                0x00000cf9       0x33 /prog/riscv/lib/gcc/riscv64-unknown-elf/14.2.0/../../../../riscv64-unknown-elf/lib/rv32im_zicsr/ilp32/libc_nano.a(libc_a-atoi.o)
 .riscv.attributes
                0x00000d2c       0x33 /prog/riscv/lib/gcc/riscv64-unknown-elf/14.2.0/../../../../riscv64-unknown-elf/lib/rv32im_zicsr/ilp32/libc_nano.a(libc_a-calloc.o)
 .riscv.attributes
                0x00000d5f       0x33 /prog/riscv/lib/gcc/riscv64-unknown-elf/14.2.0/../../../../riscv64-unknown-elf/lib/rv32im_zicsr/ilp32/libc_nano.a(libc_a-callocr.o)
 .riscv.attributes
                0x00000d92       0x33 /prog/riscv/lib/gcc/riscv64-unknown-elf/14.2.0/../../../../riscv64-unknown-elf/lib/rv32im_zicsr/ilp32/libc_nano.a(libc_a-exit.o)
 .riscv.attributes
                0x00000dc5       0x33 /prog/riscv/lib/gcc/riscv64-unknown-elf/14.2.0/../../../../riscv64-unknown-elf/lib/rv32im_zicsr/ilp32/libc_nano.a(libc_a-malloc.o)
 .riscv.attributes
                0x00000df8       0x33 /prog/riscv/lib/gcc/riscv64-unknown-elf/14.2.0/../../../../riscv64-unknown-elf/lib/rv32im_zicsr/ilp32/libc_nano.a(libc_a-mallocr.o)
 .riscv.attributes
                0x00000e2b       0x33 /prog/riscv/lib/gcc/riscv64-unknown-elf/14.2.0/../../../../riscv64-unknown-elf/lib/rv32im_zicsr/ilp32/libc_nano.a(libc_a-mlock.o)
 .riscv.attributes
                0x00000e5e       0x33 /prog/riscv/lib/gcc/riscv64-unknown-elf/14.2.0/../../../../riscv64-unknown-elf/lib/rv32im_zicsr/ilp32/libc_nano.a(libc_a-realloc.o)
 .riscv.attributes
                0x00000e91       0x33 /prog/riscv/lib/gcc/riscv64-unknown-elf/14.2.0/../../../../riscv64-unknown-elf/lib/rv32im_zicsr/ilp32/libc_nano.a(libc_a-reallocr.o)
 .riscv.attributes
                0x00000ec4       0x33 /prog/riscv/lib/gcc/riscv64-unknown-elf/14.2.0/../../../../riscv64-unknown-elf/lib/rv32im_zicsr/ilp32/libc_nano.a(libc_a-strtol.o)
 .riscv.attributes
                0x00000ef7       0x33 /prog/riscv/lib/gcc/riscv64-unknown-elf/14.2.0/../../../../riscv64-unknown-elf/lib/rv32im_zicsr/ilp32/libc_nano.a(libc_a-ctype_.o)
 .riscv.attributes
                0x00000f2a       0x33 /prog/riscv/lib/gcc/riscv64-unknown-elf/14.2.0/../../../../riscv64-unknown-elf/lib/rv32im_zicsr/ilp32/libc_nano.a(libc_a-nano-vfprintf.o)
 .riscv.attributes
                0x00000f5d       0x33 /prog/riscv/lib/gcc/riscv64-unknown-elf/14.2.0/../../../../riscv64-unknown-elf/lib/rv32im_zicsr/ilp32/libc_nano.a(libc_a-nano-vfprintf_i.o)
 .riscv.attributes
                0x00000f90       0x33 /prog/riscv/lib/gcc/riscv64-unknown-elf/14.2.0/../../../../riscv64-unknown-elf/lib/rv32im_zicsr/ilp32/libc_nano.a(libc_a-fclose.o)
 .riscv.attributes
                0x00000fc3       0x33 /prog/riscv/lib/gcc/riscv64-unknown-elf/14.2.0/../../../../riscv64-unknown-elf/lib/rv32im_zicsr/ilp32/libc_nano.a(libc_a-fflush.o)
 .riscv.attributes
                0x00000ff6       0x33 /prog/riscv/lib/gcc/riscv64-unknown-elf/14.2.0/../../../../riscv64-unknown-elf/lib/rv32im_zicsr/ilp32/libc_nano.a(libc_a-findfp.o)
 .riscv.attributes
                0x00001029       0x33 /prog/riscv/lib/gcc/riscv64-unknown-elf/14.2.0/../../../../riscv64-unknown-elf/lib/rv32im_zicsr/ilp32/libc_nano.a(libc_a-fopen.o)
 .riscv.attributes
                0x0000105c       0x33 /prog/riscv/lib/gcc/riscv64-unknown-elf/14.2.0/../../../../riscv64-unknown-elf/lib/rv32im_zicsr/ilp32/libc_nano.a(libc_a-fprintf.o)
 .riscv.attributes
                0x0000108f       0x33 /prog/riscv/lib/gcc/riscv64-unknown-elf/14.2.0/../../../../riscv64-unknown-elf/lib/rv32im_zicsr/ilp32/libc_nano.a(libc_a-fscanf.o)
 .riscv.attributes
                0x000010c2       0x33 /prog/riscv/lib/gcc/riscv64-unknown-elf/14.2.0/../../../../riscv64-unknown-elf/lib/rv32im_zicsr/ilp32/libc_nano.a(libc_a-fseek.o)
 .riscv.attributes
                0x000010f5       0x33 /prog/riscv/lib/gcc/riscv64-unknown-elf/14.2.0/../../../../riscv64-unknown-elf/lib/rv32im_zicsr/ilp32/libc_nano.a(libc_a-fwalk.o)
 .riscv.attributes
                0x00001128       0x33 /prog/riscv/lib/gcc/riscv64-unknown-elf/14.2.0/../../../../riscv64-unknown-elf/lib/rv32im_zicsr/ilp32/libc_nano.a(libc_a-printf.o)
 .riscv.attributes
                0x0000115b       0x33 /prog/riscv/lib/gcc/riscv64-unknown-elf/14.2.0/../../../../riscv64-unknown-elf/lib/rv32im_zicsr/ilp32/libc_nano.a(libc_a-setbuf.o)
 .riscv.attributes
                0x0000118e       0x33 /prog/riscv/lib/gcc/riscv64-unknown-elf/14.2.0/../../../../riscv64-unknown-elf/lib/rv32im_zicsr/ilp32/libc_nano.a(libc_a-setvbuf.o)
 .riscv.attributes
                0x000011c1       0x33 /prog/riscv/lib/gcc/riscv64-unknown-elf/14.2.0/../../../../riscv64-unknown-elf/lib/rv32im_zicsr/ilp32/libc_nano.a(libc_a-sprintf.o)
 .riscv.attributes
                0x000011f4       0x33 /prog/riscv/lib/gcc/riscv64-unknown-elf/14.2.0/../../../../riscv64-unknown-elf/lib/rv32im_zicsr/ilp32/libc_nano.a(libc_a-sscanf.o)
 .riscv.attributes
                0x00001227       0x33 /prog/riscv/lib/gcc/riscv64-unknown-elf/14.2.0/../../../../riscv64-unknown-elf/lib/rv32im_zicsr/ilp32/libc_nano.a(libc_a-stdio.o)
 .riscv.attributes
                0x0000125a       0x33 /prog/riscv/lib/gcc/riscv64-unknown-elf/14.2.0/../../../../riscv64-unknown-elf/lib/rv32im_zicsr/ilp32/libc_nano.a(libc_a-wbuf.o)
 .riscv.attributes
                0x0000128d       0x33 /prog/riscv/lib/gcc/riscv64-unknown-elf/14.2.0/../../../../riscv64-unknown-elf/lib/rv32im_zicsr/ilp32/libc_nano.a(libc_a-wsetup.o)
 .riscv.attributes
                0x000012c0       0x33 /prog/riscv/lib/gcc/riscv64-unknown-elf/14.2.0/../../../../riscv64-unknown-elf/lib/rv32im_zicsr/ilp32/libc_nano.a(libc_a-fseeko.o)
 .riscv.attributes
                0x000012f3       0x33 /prog/riscv/lib/gcc/riscv64-unknown-elf/14.2.0/../../../../riscv64-unknown-elf/lib/rv32im_zicsr/ilp32/libc_nano.a(libc_a-memchr.o)
 .riscv.attributes
                0x00001326       0x33 /prog/riscv/lib/gcc/riscv64-unknown-elf/14.2.0/../../../../riscv64-unknown-elf/lib/rv32im_zicsr/ilp32/libc_nano.a(libc_a-strcasecmp.o)
 .riscv.attributes
                0x00001359       0x33 /prog/riscv/lib/gcc/riscv64-unknown-elf/14.2.0/../../../../riscv64-unknown-elf/lib/rv32im_zicsr/ilp32/libc_nano.a(libc_a-strncasecmp.o)
 .riscv.attributes
                0x0000138c       0x33 /prog/riscv/lib/gcc/riscv64-unknown-elf/14.2.0/../../../../riscv64-unknown-elf/lib/rv32im_zicsr/ilp32/libc_nano.a(libc_a-strncmp.o)
 .riscv.attributes
                0x000013bf       0x33 /prog/riscv/lib/gcc/riscv64-unknown-elf/14.2.0/../../../../riscv64-unknown-elf/lib/rv32im_zicsr/ilp32/libc_nano.a(libc_a-strncpy.o)
 .riscv.attributes
                0x000013f2       0x33 /prog/riscv/lib/gcc/riscv64-unknown-elf/14.2.0/../../../../riscv64-unknown-elf/lib/rv32im_zicsr/ilp32/libc_nano.a(libc_a-closer.o)
 .riscv.attributes
                0x00001425       0x33 /prog/riscv/lib/gcc/riscv64-unknown-elf/14.2.0/../../../../riscv64-unknown-elf/lib/rv32im_zicsr/ilp32/libc_nano.a(libc_a-reent.o)
 .riscv.attributes
                0x00001458       0x33 /prog/riscv/lib/gcc/riscv64-unknown-elf/14.2.0/../../../../riscv64-unknown-elf/lib/rv32im_zicsr/ilp32/libc_nano.a(libc_a-impure.o)
 .riscv.attributes
                0x0000148b       0x33 /prog/riscv/lib/gcc/riscv64-unknown-elf/14.2.0/../../../../riscv64-unknown-elf/lib/rv32im_zicsr/ilp32/libc_nano.a(libc_a-lseekr.o)
 .riscv.attributes
                0x000014be       0x33 /prog/riscv/lib/gcc/riscv64-unknown-elf/14.2.0/../../../../riscv64-unknown-elf/lib/rv32im_zicsr/ilp32/libc_nano.a(libc_a-openr.o)
 .riscv.attributes
                0x000014f1       0x33 /prog/riscv/lib/gcc/riscv64-unknown-elf/14.2.0/../../../../riscv64-unknown-elf/lib/rv32im_zicsr/ilp32/libc_nano.a(libc_a-readr.o)
 .riscv.attributes
                0x00001524       0x33 /prog/riscv/lib/gcc/riscv64-unknown-elf/14.2.0/../../../../riscv64-unknown-elf/lib/rv32im_zicsr/ilp32/libc_nano.a(libc_a-sbrkr.o)
 .riscv.attributes
                0x00001557       0x33 /prog/riscv/lib/gcc/riscv64-unknown-elf/14.2.0/../../../../riscv64-unknown-elf/lib/rv32im_zicsr/ilp32/libc_nano.a(libc_a-writer.o)
 .riscv.attributes
                0x0000158a       0x33 /prog/riscv/lib/gcc/riscv64-unknown-elf/14.2.0/../../../../riscv64-unknown-elf/lib/rv32im_zicsr/ilp32/libc_nano.a(libc_a-errno.o)
 .riscv.attributes
                0x000015bd       0x33 /prog/riscv/lib/gcc/riscv64-unknown-elf/14.2.0/../../../../riscv64-unknown-elf/lib/rv32im_zicsr/ilp32/libc_nano.a(libc_a-sysclose.o)
 .riscv.attributes
                0x000015f0       0x33 /prog/riscv/lib/gcc/riscv64-unknown-elf/14.2.0/../../../../riscv64-unknown-elf/lib/rv32im_zicsr/ilp32/libc_nano.a(libc_a-sysfstat.o)
 .riscv.attributes
                0x00001623       0x33 /prog/riscv/lib/gcc/riscv64-unknown-elf/14.2.0/../../../../riscv64-unknown-elf/lib/rv32im_zicsr/ilp32/libc_nano.a(libc_a-syslseek.o)
 .riscv.attributes
                0x00001656       0x33 /prog/riscv/lib/gcc/riscv64-unknown-elf/14.2.0/../../../../riscv64-unknown-elf/lib/rv32im_zicsr/ilp32/libc_nano.a(libc_a-sysopen.o)
 .riscv.attributes
                0x00001689       0x33 /prog/riscv/lib/gcc/riscv64-unknown-elf/14.2.0/../../../../riscv64-unknown-elf/lib/rv32im_zicsr/ilp32/libc_nano.a(libc_a-sysread.o)
 .riscv.attributes
                0x000016bc       0x33 /prog/riscv/lib/gcc/riscv64-unknown-elf/14.2.0/../../../../riscv64-unknown-elf/lib/rv32im_zicsr/ilp32/libc_nano.a(libc_a-sysstat.o)
 .riscv.attributes
                0x000016ef       0x33 /prog/riscv/lib/gcc/riscv64-unknown-elf/14.2.0/../../../../riscv64-unknown-elf/lib/rv32im_zicsr/ilp32/libc_nano.a(libc_a-syswrite.o)
 .riscv.attributes
                0x00001722       0x31 /prog/riscv/lib/gcc/riscv64-unknown-elf/14.2.0/../../../../riscv64-unknown-elf/lib/rv32im_zicsr/ilp32/libc_nano.a(libc_a-memmove.o)
 .riscv.attributes
                0x00001753       0x33 /prog/riscv/lib/gcc/riscv64-unknown-elf/14.2.0/../../../../riscv64-unknown-elf/lib/rv32im_zicsr/ilp32/libc_nano.a(libc_a-strlen.o)
 .riscv.attributes
                0x00001786       0x33 /prog/riscv/lib/gcc/riscv64-unknown-elf/14.2.0/../../../../riscv64-unknown-elf/lib/rv32im_zicsr/ilp32/libc_nano.a(libc_a-strcpy.o)
 .riscv.attributes
                0x000017b9       0x31 /prog/riscv/lib/gcc/riscv64-unknown-elf/14.2.0/../../../../riscv64-unknown-elf/lib/rv32im_zicsr/ilp32/libc_nano.a(libc_a-strcmp.o)
 .riscv.attributes
                0x000017ea       0x33 /prog/riscv/lib/gcc/riscv64-unknown-elf/14.2.0/../../../../riscv64-unknown-elf/lib/rv32im_zicsr/ilp32/libc_nano.a(libc_a-freer.o)
 .riscv.attributes
                0x0000181d       0x33 /prog/riscv/lib/gcc/riscv64-unknown-elf/14.2.0/../../../../riscv64-unknown-elf/lib/rv32im_zicsr/ilp32/libc_nano.a(libc_a-msizer.o)
 .riscv.attributes
                0x00001850       0x33 /prog/riscv/lib/gcc/riscv64-unknown-elf/14.2.0/../../../../riscv64-unknown-elf/lib/rv32im_zicsr/ilp32/libc_nano.a(libc_a-nano-svfprintf.o)
 .riscv.attributes
                0x00001883       0x33 /prog/riscv/lib/gcc/riscv64-unknown-elf/14.2.0/../../../../riscv64-unknown-elf/lib/rv32im_zicsr/ilp32/libc_nano.a(libc_a-nano-svfscanf.o)
 .riscv.attributes
                0x000018b6       0x33 /prog/riscv/lib/gcc/riscv64-unknown-elf/14.2.0/../../../../riscv64-unknown-elf/lib/rv32im_zicsr/ilp32/libc_nano.a(libc_a-nano-vfscanf.o)
 .riscv.attributes
                0x000018e9       0x33 /prog/riscv/lib/gcc/riscv64-unknown-elf/14.2.0/../../../../riscv64-unknown-elf/lib/rv32im_zicsr/ilp32/libc_nano.a(libc_a-nano-vfscanf_i.o)
 .riscv.attributes
                0x0000191c       0x33 /prog/riscv/lib/gcc/riscv64-unknown-elf/14.2.0/../../../../riscv64-unknown-elf/lib/rv32im_zicsr/ilp32/libc_nano.a(libc_a-flags.o)
 .riscv.attributes
                0x0000194f       0x33 /prog/riscv/lib/gcc/riscv64-unknown-elf/14.2.0/../../../../riscv64-unknown-elf/lib/rv32im_zicsr/ilp32/libc_nano.a(libc_a-makebuf.o)
 .riscv.attributes
                0x00001982       0x33 /prog/riscv/lib/gcc/riscv64-unknown-elf/14.2.0/../../../../riscv64-unknown-elf/lib/rv32im_zicsr/ilp32/libc_nano.a(libc_a-refill.o)
 .riscv.attributes
                0x000019b5       0x33 /prog/riscv/lib/gcc/riscv64-unknown-elf/14.2.0/../../../../riscv64-unknown-elf/lib/rv32im_zicsr/ilp32/libc_nano.a(libc_a-sccl.o)
 .riscv.attributes
                0x000019e8       0x33 /prog/riscv/lib/gcc/riscv64-unknown-elf/14.2.0/../../../../riscv64-unknown-elf/lib/rv32im_zicsr/ilp32/libc_nano.a(libc_a-ungetc.o)
 .riscv.attributes
                0x00001a1b       0x33 /prog/riscv/lib/gcc/riscv64-unknown-elf/14.2.0/../../../../riscv64-unknown-elf/lib/rv32im_zicsr/ilp32/libc_nano.a(libc_a-fstatr.o)
 .riscv.attributes
                0x00001a4e       0x33 /prog/riscv/lib/gcc/riscv64-unknown-elf/14.2.0/../../../../riscv64-unknown-elf/lib/rv32im_zicsr/ilp32/libc_nano.a(libc_a-isattyr.o)
 .riscv.attributes
                0x00001a81       0x33 /prog/riscv/lib/gcc/riscv64-unknown-elf/14.2.0/../../../../riscv64-unknown-elf/lib/rv32im_zicsr/ilp32/libc_nano.a(libc_a-statr.o)
 .riscv.attributes
                0x00001ab4       0x33 /prog/riscv/lib/gcc/riscv64-unknown-elf/14.2.0/../../../../riscv64-unknown-elf/lib/rv32im_zicsr/ilp32/libc_nano.a(libc_a-strtoul.o)
 .riscv.attributes
                0x00001ae7       0x33 /prog/riscv/lib/gcc/riscv64-unknown-elf/14.2.0/rv32im_zicsr/ilp32/libgcc.a(_divdi3.o)
 .riscv.attributes
                0x00001b1a       0x33 /prog/riscv/lib/gcc/riscv64-unknown-elf/14.2.0/rv32im_zicsr/ilp32/libgcc.a(_clz.o)
 .riscv.attributes
                0x00001b4d       0x33 /prog/riscv/lib/gcc/riscv64-unknown-elf/14.2.0/../../../../riscv64-unknown-elf/lib/rv32im_zicsr/ilp32/libnosys.a(_exit.o)

.debug_info     0x00000000      0x895
 .debug_info    0x00000000      0x7a8 /prog/riscv/lib/gcc/riscv64-unknown-elf/14.2.0/rv32im_zicsr/ilp32/libgcc.a(_divdi3.o)
 .debug_info    0x000007a8       0xed /prog/riscv/lib/gcc/riscv64-unknown-elf/14.2.0/rv32im_zicsr/ilp32/libgcc.a(_clz.o)

.debug_abbrev   0x00000000      0x22f
 .debug_abbrev  0x00000000      0x1bf /prog/riscv/lib/gcc/riscv64-unknown-elf/14.2.0/rv32im_zicsr/ilp32/libgcc.a(_divdi3.o)
 .debug_abbrev  0x000001bf       0x70 /prog/riscv/lib/gcc/riscv64-unknown-elf/14.2.0/rv32im_zicsr/ilp32/libgcc.a(_clz.o)

.debug_loclists
                0x00000000      0x561
 .debug_loclists
                0x00000000      0x561 /prog/riscv/lib/gcc/riscv64-unknown-elf/14.2.0/rv32im_zicsr/ilp32/libgcc.a(_divdi3.o)

.debug_aranges  0x00000000       0x38
 .debug_aranges
                0x00000000       0x20 /prog/riscv/lib/gcc/riscv64-unknown-elf/14.2.0/rv32im_zicsr/ilp32/libgcc.a(_divdi3.o)
 .debug_aranges
                0x00000020       0x18 /prog/riscv/lib/gcc/riscv64-unknown-elf/14.2.0/rv32im_zicsr/ilp32/libgcc.a(_clz.o)

.debug_rnglists
                0x00000000       0x8f
 .debug_rnglists
                0x00000000       0x8f /prog/riscv/lib/gcc/riscv64-unknown-elf/14.2.0/rv32im_zicsr/ilp32/libgcc.a(_divdi3.o)

.debug_line     0x00000000      0xa6d
 .debug_line    0x00000000      0xa2e /prog/riscv/lib/gcc/riscv64-unknown-elf/14.2.0/rv32im_zicsr/ilp32/libgcc.a(_divdi3.o)
 .debug_line    0x00000a2e       0x3f /prog/riscv/lib/gcc/riscv64-unknown-elf/14.2.0/rv32im_zicsr/ilp32/libgcc.a(_clz.o)

.debug_str      0x00000000      0x2c4
 .debug_str     0x00000000      0x2c4 /prog/riscv/lib/gcc/riscv64-unknown-elf/14.2.0/rv32im_zicsr/ilp32/libgcc.a(_divdi3.o)
                                0x272 (size before relaxing)
 .debug_str     0x000002c4      0x1c0 /prog/riscv/lib/gcc/riscv64-unknown-elf/14.2.0/rv32im_zicsr/ilp32/libgcc.a(_clz.o)

.debug_line_str
                0x00000000       0xa7
 .debug_line_str
                0x00000000       0xa7 /prog/riscv/lib/gcc/riscv64-unknown-elf/14.2.0/rv32im_zicsr/ilp32/libgcc.a(_divdi3.o)
                                0x116 (size before relaxing)
 .debug_line_str
                0x000000a7      0x116 /prog/riscv/lib/gcc/riscv64-unknown-elf/14.2.0/rv32im_zicsr/ilp32/libgcc.a(_clz.o)
